	.file	"main.cpp"
	.text
	.section	.text._ZNSt6thread11_State_implINS_8_InvokerISt5tupleIJZN14MdArrayUtility5rangeIddvEE13MdStaticArrayIT_ES6_S6_T0_EUlmdmdE_mdmdEEEEE6_M_runEv,"axG",@progbits,_ZNSt6thread11_State_implINS_8_InvokerISt5tupleIJZN14MdArrayUtility5rangeIddvEE13MdStaticArrayIT_ES6_S6_T0_EUlmdmdE_mdmdEEEEE6_M_runEv,comdat
	.align 2
	.p2align 4
	.weak	_ZNSt6thread11_State_implINS_8_InvokerISt5tupleIJZN14MdArrayUtility5rangeIddvEE13MdStaticArrayIT_ES6_S6_T0_EUlmdmdE_mdmdEEEEE6_M_runEv
	.type	_ZNSt6thread11_State_implINS_8_InvokerISt5tupleIJZN14MdArrayUtility5rangeIddvEE13MdStaticArrayIT_ES6_S6_T0_EUlmdmdE_mdmdEEEEE6_M_runEv, @function
_ZNSt6thread11_State_implINS_8_InvokerISt5tupleIJZN14MdArrayUtility5rangeIddvEE13MdStaticArrayIT_ES6_S6_T0_EUlmdmdE_mdmdEEEEE6_M_runEv:
.LFB12537:
	.cfi_startproc
	endbr64
	movq	16(%rdi), %rsi
	movq	32(%rdi), %rdx
	vmovsd	8(%rdi), %xmm3
	vmovsd	24(%rdi), %xmm2
	cmpq	%rdx, %rsi
	jbe	.L10
	movq	40(%rdi), %rax
	movq	%rsi, %r8
	subq	%rdx, %r8
	movq	8(%rax), %rdi
	leaq	-1(%r8), %rax
	cmpq	$2, %rax
	jbe	.L3
	vaddsd	%xmm2, %xmm3, %xmm0
	movq	%r8, %rcx
	shrq	$2, %rcx
	vaddsd	%xmm0, %xmm3, %xmm1
	leaq	(%rdi,%rdx,8), %rax
	vunpcklpd	%xmm0, %xmm2, %xmm0
	vaddsd	%xmm1, %xmm3, %xmm4
	salq	$5, %rcx
	addq	%rax, %rcx
	vunpcklpd	%xmm4, %xmm1, %xmm1
	vmulsd	.LC0(%rip), %xmm3, %xmm4
	vinsertf128	$0x1, %xmm1, %ymm0, %ymm0
	vbroadcastsd	%xmm4, %ymm4
	.p2align 4,,10
	.p2align 3
.L4:
	vmovapd	%ymm0, %ymm1
	vmovupd	%ymm1, (%rax)
	addq	$32, %rax
	vaddpd	%ymm4, %ymm0, %ymm0
	cmpq	%rcx, %rax
	jne	.L4
	movq	%r8, %rax
	andq	$-4, %rax
	vxorps	%xmm0, %xmm0, %xmm0
	addq	%rax, %rdx
	testq	%rax, %rax
	js	.L5
	vcvtsi2sdq	%rax, %xmm0, %xmm0
.L6:
	vfmadd231sd	%xmm0, %xmm3, %xmm2
	cmpq	%rax, %r8
	je	.L9
	vzeroupper
.L3:
	leaq	1(%rdx), %rcx
	vmovsd	%xmm2, (%rdi,%rdx,8)
	leaq	0(,%rdx,8), %rax
	vaddsd	%xmm2, %xmm3, %xmm2
	cmpq	%rcx, %rsi
	jbe	.L10
	addq	$2, %rdx
	vaddsd	%xmm2, %xmm3, %xmm3
	vmovsd	%xmm2, 8(%rdi,%rax)
	cmpq	%rdx, %rsi
	jbe	.L10
	vmovsd	%xmm3, 16(%rdi,%rax)
	ret
	.p2align 4,,10
	.p2align 3
.L9:
	vzeroupper
.L10:
	ret
	.p2align 4,,10
	.p2align 3
.L5:
	movq	%rax, %rcx
	shrq	%rcx
	vcvtsi2sdq	%rcx, %xmm0, %xmm0
	vaddsd	%xmm0, %xmm0, %xmm0
	jmp	.L6
	.cfi_endproc
.LFE12537:
	.size	_ZNSt6thread11_State_implINS_8_InvokerISt5tupleIJZN14MdArrayUtility5rangeIddvEE13MdStaticArrayIT_ES6_S6_T0_EUlmdmdE_mdmdEEEEE6_M_runEv, .-_ZNSt6thread11_State_implINS_8_InvokerISt5tupleIJZN14MdArrayUtility5rangeIddvEE13MdStaticArrayIT_ES6_S6_T0_EUlmdmdE_mdmdEEEEE6_M_runEv
	.section	.text._ZNSt6thread11_State_implINS_8_InvokerISt5tupleIJPFvPfS3_S3_iiiiiES3_S3_S3_iiiiiEEEEE6_M_runEv,"axG",@progbits,_ZNSt6thread11_State_implINS_8_InvokerISt5tupleIJPFvPfS3_S3_iiiiiES3_S3_S3_iiiiiEEEEE6_M_runEv,comdat
	.align 2
	.p2align 4
	.weak	_ZNSt6thread11_State_implINS_8_InvokerISt5tupleIJPFvPfS3_S3_iiiiiES3_S3_S3_iiiiiEEEEE6_M_runEv
	.type	_ZNSt6thread11_State_implINS_8_InvokerISt5tupleIJPFvPfS3_S3_iiiiiES3_S3_S3_iiiiiEEEEE6_M_runEv, @function
_ZNSt6thread11_State_implINS_8_InvokerISt5tupleIJPFvPfS3_S3_iiiiiES3_S3_S3_iiiiiEEEEE6_M_runEv:
.LFB12538:
	.cfi_startproc
	endbr64
	subq	$8, %rsp
	.cfi_def_cfa_offset 16
	movq	%rdi, %rax
	movl	8(%rax), %r8d
	movl	24(%rdi), %ecx
	movq	32(%rdi), %rdx
	movq	40(%rdi), %rsi
	movq	48(%rdi), %rdi
	pushq	%r8
	.cfi_def_cfa_offset 24
	movl	12(%rax), %r8d
	movl	16(%rax), %r9d
	pushq	%r8
	.cfi_def_cfa_offset 32
	movl	20(%rax), %r8d
	call	*56(%rax)
	addq	$24, %rsp
	.cfi_def_cfa_offset 8
	ret
	.cfi_endproc
.LFE12538:
	.size	_ZNSt6thread11_State_implINS_8_InvokerISt5tupleIJPFvPfS3_S3_iiiiiES3_S3_S3_iiiiiEEEEE6_M_runEv, .-_ZNSt6thread11_State_implINS_8_InvokerISt5tupleIJPFvPfS3_S3_iiiiiES3_S3_S3_iiiiiEEEEE6_M_runEv
	.section	.text._ZNSt6thread11_State_implINS_8_InvokerISt5tupleIJPFvPfS3_S3_iiiiiES3_S3_S3_iiimmEEEEE6_M_runEv,"axG",@progbits,_ZNSt6thread11_State_implINS_8_InvokerISt5tupleIJPFvPfS3_S3_iiiiiES3_S3_S3_iiimmEEEEE6_M_runEv,comdat
	.align 2
	.p2align 4
	.weak	_ZNSt6thread11_State_implINS_8_InvokerISt5tupleIJPFvPfS3_S3_iiiiiES3_S3_S3_iiimmEEEEE6_M_runEv
	.type	_ZNSt6thread11_State_implINS_8_InvokerISt5tupleIJPFvPfS3_S3_iiiiiES3_S3_S3_iiimmEEEEE6_M_runEv, @function
_ZNSt6thread11_State_implINS_8_InvokerISt5tupleIJPFvPfS3_S3_iiiiiES3_S3_S3_iiimmEEEEE6_M_runEv:
.LFB12539:
	.cfi_startproc
	endbr64
	subq	$8, %rsp
	.cfi_def_cfa_offset 16
	movq	%rdi, %rax
	movq	8(%rax), %r8
	movl	32(%rdi), %ecx
	movq	40(%rdi), %rdx
	movq	48(%rdi), %rsi
	movq	56(%rdi), %rdi
	pushq	%r8
	.cfi_def_cfa_offset 24
	movq	16(%rax), %r8
	movl	24(%rax), %r9d
	pushq	%r8
	.cfi_def_cfa_offset 32
	movl	28(%rax), %r8d
	call	*64(%rax)
	addq	$24, %rsp
	.cfi_def_cfa_offset 8
	ret
	.cfi_endproc
.LFE12539:
	.size	_ZNSt6thread11_State_implINS_8_InvokerISt5tupleIJPFvPfS3_S3_iiiiiES3_S3_S3_iiimmEEEEE6_M_runEv, .-_ZNSt6thread11_State_implINS_8_InvokerISt5tupleIJPFvPfS3_S3_iiiiiES3_S3_S3_iiimmEEEEE6_M_runEv
	.section	.text._ZNSt6thread11_State_implINS_8_InvokerISt5tupleIJPFvPdS3_S3_iiiiiES3_S3_S3_iiiiiEEEEE6_M_runEv,"axG",@progbits,_ZNSt6thread11_State_implINS_8_InvokerISt5tupleIJPFvPdS3_S3_iiiiiES3_S3_S3_iiiiiEEEEE6_M_runEv,comdat
	.align 2
	.p2align 4
	.weak	_ZNSt6thread11_State_implINS_8_InvokerISt5tupleIJPFvPdS3_S3_iiiiiES3_S3_S3_iiiiiEEEEE6_M_runEv
	.type	_ZNSt6thread11_State_implINS_8_InvokerISt5tupleIJPFvPdS3_S3_iiiiiES3_S3_S3_iiiiiEEEEE6_M_runEv, @function
_ZNSt6thread11_State_implINS_8_InvokerISt5tupleIJPFvPdS3_S3_iiiiiES3_S3_S3_iiiiiEEEEE6_M_runEv:
.LFB12540:
	.cfi_startproc
	endbr64
	subq	$8, %rsp
	.cfi_def_cfa_offset 16
	movq	%rdi, %rax
	movl	8(%rax), %r8d
	movl	24(%rdi), %ecx
	movq	32(%rdi), %rdx
	movq	40(%rdi), %rsi
	movq	48(%rdi), %rdi
	pushq	%r8
	.cfi_def_cfa_offset 24
	movl	12(%rax), %r8d
	movl	16(%rax), %r9d
	pushq	%r8
	.cfi_def_cfa_offset 32
	movl	20(%rax), %r8d
	call	*56(%rax)
	addq	$24, %rsp
	.cfi_def_cfa_offset 8
	ret
	.cfi_endproc
.LFE12540:
	.size	_ZNSt6thread11_State_implINS_8_InvokerISt5tupleIJPFvPdS3_S3_iiiiiES3_S3_S3_iiiiiEEEEE6_M_runEv, .-_ZNSt6thread11_State_implINS_8_InvokerISt5tupleIJPFvPdS3_S3_iiiiiES3_S3_S3_iiiiiEEEEE6_M_runEv
	.section	.text._ZNSt6thread11_State_implINS_8_InvokerISt5tupleIJPFvPdS3_S3_iiiiiES3_S3_S3_iiimmEEEEE6_M_runEv,"axG",@progbits,_ZNSt6thread11_State_implINS_8_InvokerISt5tupleIJPFvPdS3_S3_iiiiiES3_S3_S3_iiimmEEEEE6_M_runEv,comdat
	.align 2
	.p2align 4
	.weak	_ZNSt6thread11_State_implINS_8_InvokerISt5tupleIJPFvPdS3_S3_iiiiiES3_S3_S3_iiimmEEEEE6_M_runEv
	.type	_ZNSt6thread11_State_implINS_8_InvokerISt5tupleIJPFvPdS3_S3_iiiiiES3_S3_S3_iiimmEEEEE6_M_runEv, @function
_ZNSt6thread11_State_implINS_8_InvokerISt5tupleIJPFvPdS3_S3_iiiiiES3_S3_S3_iiimmEEEEE6_M_runEv:
.LFB12541:
	.cfi_startproc
	endbr64
	subq	$8, %rsp
	.cfi_def_cfa_offset 16
	movq	%rdi, %rax
	movq	8(%rax), %r8
	movl	32(%rdi), %ecx
	movq	40(%rdi), %rdx
	movq	48(%rdi), %rsi
	movq	56(%rdi), %rdi
	pushq	%r8
	.cfi_def_cfa_offset 24
	movq	16(%rax), %r8
	movl	24(%rax), %r9d
	pushq	%r8
	.cfi_def_cfa_offset 32
	movl	28(%rax), %r8d
	call	*64(%rax)
	addq	$24, %rsp
	.cfi_def_cfa_offset 8
	ret
	.cfi_endproc
.LFE12541:
	.size	_ZNSt6thread11_State_implINS_8_InvokerISt5tupleIJPFvPdS3_S3_iiiiiES3_S3_S3_iiimmEEEEE6_M_runEv, .-_ZNSt6thread11_State_implINS_8_InvokerISt5tupleIJPFvPdS3_S3_iiiiiES3_S3_S3_iiimmEEEEE6_M_runEv
	.section	.text._ZNSt6thread11_State_implINS_8_InvokerISt5tupleIJPFvP7ComplexIdvES5_S5_iiiiiES5_S5_S5_iiiiiEEEEE6_M_runEv,"axG",@progbits,_ZNSt6thread11_State_implINS_8_InvokerISt5tupleIJPFvP7ComplexIdvES5_S5_iiiiiES5_S5_S5_iiiiiEEEEE6_M_runEv,comdat
	.align 2
	.p2align 4
	.weak	_ZNSt6thread11_State_implINS_8_InvokerISt5tupleIJPFvP7ComplexIdvES5_S5_iiiiiES5_S5_S5_iiiiiEEEEE6_M_runEv
	.type	_ZNSt6thread11_State_implINS_8_InvokerISt5tupleIJPFvP7ComplexIdvES5_S5_iiiiiES5_S5_S5_iiiiiEEEEE6_M_runEv, @function
_ZNSt6thread11_State_implINS_8_InvokerISt5tupleIJPFvP7ComplexIdvES5_S5_iiiiiES5_S5_S5_iiiiiEEEEE6_M_runEv:
.LFB12542:
	.cfi_startproc
	endbr64
	subq	$8, %rsp
	.cfi_def_cfa_offset 16
	movq	%rdi, %rax
	movl	8(%rax), %r8d
	movl	24(%rdi), %ecx
	movq	32(%rdi), %rdx
	movq	40(%rdi), %rsi
	movq	48(%rdi), %rdi
	pushq	%r8
	.cfi_def_cfa_offset 24
	movl	12(%rax), %r8d
	movl	16(%rax), %r9d
	pushq	%r8
	.cfi_def_cfa_offset 32
	movl	20(%rax), %r8d
	call	*56(%rax)
	addq	$24, %rsp
	.cfi_def_cfa_offset 8
	ret
	.cfi_endproc
.LFE12542:
	.size	_ZNSt6thread11_State_implINS_8_InvokerISt5tupleIJPFvP7ComplexIdvES5_S5_iiiiiES5_S5_S5_iiiiiEEEEE6_M_runEv, .-_ZNSt6thread11_State_implINS_8_InvokerISt5tupleIJPFvP7ComplexIdvES5_S5_iiiiiES5_S5_S5_iiiiiEEEEE6_M_runEv
	.section	.text._ZNSt6thread11_State_implINS_8_InvokerISt5tupleIJPFvP7ComplexIdvES5_S5_iiiiiES5_S5_S5_iiimmEEEEE6_M_runEv,"axG",@progbits,_ZNSt6thread11_State_implINS_8_InvokerISt5tupleIJPFvP7ComplexIdvES5_S5_iiiiiES5_S5_S5_iiimmEEEEE6_M_runEv,comdat
	.align 2
	.p2align 4
	.weak	_ZNSt6thread11_State_implINS_8_InvokerISt5tupleIJPFvP7ComplexIdvES5_S5_iiiiiES5_S5_S5_iiimmEEEEE6_M_runEv
	.type	_ZNSt6thread11_State_implINS_8_InvokerISt5tupleIJPFvP7ComplexIdvES5_S5_iiiiiES5_S5_S5_iiimmEEEEE6_M_runEv, @function
_ZNSt6thread11_State_implINS_8_InvokerISt5tupleIJPFvP7ComplexIdvES5_S5_iiiiiES5_S5_S5_iiimmEEEEE6_M_runEv:
.LFB12543:
	.cfi_startproc
	endbr64
	subq	$8, %rsp
	.cfi_def_cfa_offset 16
	movq	%rdi, %rax
	movq	8(%rax), %r8
	movl	32(%rdi), %ecx
	movq	40(%rdi), %rdx
	movq	48(%rdi), %rsi
	movq	56(%rdi), %rdi
	pushq	%r8
	.cfi_def_cfa_offset 24
	movq	16(%rax), %r8
	movl	24(%rax), %r9d
	pushq	%r8
	.cfi_def_cfa_offset 32
	movl	28(%rax), %r8d
	call	*64(%rax)
	addq	$24, %rsp
	.cfi_def_cfa_offset 8
	ret
	.cfi_endproc
.LFE12543:
	.size	_ZNSt6thread11_State_implINS_8_InvokerISt5tupleIJPFvP7ComplexIdvES5_S5_iiiiiES5_S5_S5_iiimmEEEEE6_M_runEv, .-_ZNSt6thread11_State_implINS_8_InvokerISt5tupleIJPFvP7ComplexIdvES5_S5_iiiiiES5_S5_S5_iiimmEEEEE6_M_runEv
	.section	.text._ZNSt6thread11_State_implINS_8_InvokerISt5tupleIJPFvP7ComplexIfvES5_S5_iiiiiES5_S5_S5_iiiiiEEEEE6_M_runEv,"axG",@progbits,_ZNSt6thread11_State_implINS_8_InvokerISt5tupleIJPFvP7ComplexIfvES5_S5_iiiiiES5_S5_S5_iiiiiEEEEE6_M_runEv,comdat
	.align 2
	.p2align 4
	.weak	_ZNSt6thread11_State_implINS_8_InvokerISt5tupleIJPFvP7ComplexIfvES5_S5_iiiiiES5_S5_S5_iiiiiEEEEE6_M_runEv
	.type	_ZNSt6thread11_State_implINS_8_InvokerISt5tupleIJPFvP7ComplexIfvES5_S5_iiiiiES5_S5_S5_iiiiiEEEEE6_M_runEv, @function
_ZNSt6thread11_State_implINS_8_InvokerISt5tupleIJPFvP7ComplexIfvES5_S5_iiiiiES5_S5_S5_iiiiiEEEEE6_M_runEv:
.LFB12544:
	.cfi_startproc
	endbr64
	subq	$8, %rsp
	.cfi_def_cfa_offset 16
	movq	%rdi, %rax
	movl	8(%rax), %r8d
	movl	24(%rdi), %ecx
	movq	32(%rdi), %rdx
	movq	40(%rdi), %rsi
	movq	48(%rdi), %rdi
	pushq	%r8
	.cfi_def_cfa_offset 24
	movl	12(%rax), %r8d
	movl	16(%rax), %r9d
	pushq	%r8
	.cfi_def_cfa_offset 32
	movl	20(%rax), %r8d
	call	*56(%rax)
	addq	$24, %rsp
	.cfi_def_cfa_offset 8
	ret
	.cfi_endproc
.LFE12544:
	.size	_ZNSt6thread11_State_implINS_8_InvokerISt5tupleIJPFvP7ComplexIfvES5_S5_iiiiiES5_S5_S5_iiiiiEEEEE6_M_runEv, .-_ZNSt6thread11_State_implINS_8_InvokerISt5tupleIJPFvP7ComplexIfvES5_S5_iiiiiES5_S5_S5_iiiiiEEEEE6_M_runEv
	.section	.text._ZNSt6thread11_State_implINS_8_InvokerISt5tupleIJPFvP7ComplexIfvES5_S5_iiiiiES5_S5_S5_iiimmEEEEE6_M_runEv,"axG",@progbits,_ZNSt6thread11_State_implINS_8_InvokerISt5tupleIJPFvP7ComplexIfvES5_S5_iiiiiES5_S5_S5_iiimmEEEEE6_M_runEv,comdat
	.align 2
	.p2align 4
	.weak	_ZNSt6thread11_State_implINS_8_InvokerISt5tupleIJPFvP7ComplexIfvES5_S5_iiiiiES5_S5_S5_iiimmEEEEE6_M_runEv
	.type	_ZNSt6thread11_State_implINS_8_InvokerISt5tupleIJPFvP7ComplexIfvES5_S5_iiiiiES5_S5_S5_iiimmEEEEE6_M_runEv, @function
_ZNSt6thread11_State_implINS_8_InvokerISt5tupleIJPFvP7ComplexIfvES5_S5_iiiiiES5_S5_S5_iiimmEEEEE6_M_runEv:
.LFB12545:
	.cfi_startproc
	endbr64
	subq	$8, %rsp
	.cfi_def_cfa_offset 16
	movq	%rdi, %rax
	movq	8(%rax), %r8
	movl	32(%rdi), %ecx
	movq	40(%rdi), %rdx
	movq	48(%rdi), %rsi
	movq	56(%rdi), %rdi
	pushq	%r8
	.cfi_def_cfa_offset 24
	movq	16(%rax), %r8
	movl	24(%rax), %r9d
	pushq	%r8
	.cfi_def_cfa_offset 32
	movl	28(%rax), %r8d
	call	*64(%rax)
	addq	$24, %rsp
	.cfi_def_cfa_offset 8
	ret
	.cfi_endproc
.LFE12545:
	.size	_ZNSt6thread11_State_implINS_8_InvokerISt5tupleIJPFvP7ComplexIfvES5_S5_iiiiiES5_S5_S5_iiimmEEEEE6_M_runEv, .-_ZNSt6thread11_State_implINS_8_InvokerISt5tupleIJPFvP7ComplexIfvES5_S5_iiiiiES5_S5_S5_iiimmEEEEE6_M_runEv
	.text
	.p2align 4
	.globl	_Z15mul_mt_internalP7ComplexIdvES1_S1_iiiii
	.type	_Z15mul_mt_internalP7ComplexIdvES1_S1_iiiii, @function
_Z15mul_mt_internalP7ComplexIdvES1_S1_iiiii:
.LFB10941:
	.cfi_startproc
	endbr64
	pushq	%rbp
	.cfi_def_cfa_offset 16
	.cfi_offset 6, -16
	movq	%rsp, %rbp
	.cfi_def_cfa_register 6
	pushq	%r15
	.cfi_offset 15, -24
	movq	%rdi, %r15
	pushq	%r14
	pushq	%r13
	pushq	%r12
	pushq	%rbx
	andq	$-32, %rsp
	subq	$1256, %rsp
	.cfi_offset 14, -32
	.cfi_offset 13, -40
	.cfi_offset 12, -48
	.cfi_offset 3, -56
	movq	%rsi, 200(%rsp)
	movq	%rdx, 80(%rsp)
	movl	%r8d, 228(%rsp)
	movl	%r9d, 64(%rsp)
	movl	24(%rbp), %eax
	movl	24(%rbp), %ebx
	subl	16(%rbp), %eax
	andl	$3, %eax
	subl	%eax, %ebx
	movl	%ebx, 8(%rsp)
	cmpl	%ebx, 16(%rbp)
	jge	.L35
	movl	%r9d, %edi
	movl	%r9d, %eax
	andl	$-4, %eax
	sall	$5, %edi
	movl	%eax, %ebx
	movl	%eax, 68(%rsp)
	movl	%edi, -72(%rsp)
	movl	%r9d, %eax
	leal	(%r8,%r8), %edi
	movl	%edi, -32(%rsp)
	movl	%eax, %edi
	leal	0(,%rax,4), %eax
	movl	%eax, 36(%rsp)
	movl	%edi, %eax
	imull	16(%rbp), %edi
	movl	%r8d, %r10d
	andl	$-8, %r10d
	movl	%edi, -68(%rsp)
	movl	16(%rbp), %edi
	movl	%r8d, %r9d
	leal	1(%rdi), %edx
	movl	%eax, %edi
	imull	%edx, %eax
	movl	%edi, %esi
	imull	%r8d, %edx
	movl	%eax, -64(%rsp)
	movl	16(%rbp), %eax
	sall	$5, %r9d
	leal	2(%rax), %ecx
	movl	%edi, %eax
	imull	%ecx, %eax
	movl	%r9d, -20(%rsp)
	movl	%edx, -48(%rsp)
	movl	%eax, -60(%rsp)
	movl	16(%rbp), %eax
	movl	%r8d, %r9d
	addl	$3, %eax
	imull	%eax, %esi
	imull	%r8d, %eax
	movl	%r8d, %edx
	andl	$-4, %edx
	movl	%eax, -40(%rsp)
	leal	-1(%r10), %eax
	shrl	$3, %eax
	salq	$3, %rax
	movq	%rax, 16(%rsp)
	movl	%ebx, %eax
	imull	%r8d, %eax
	imull	16(%rbp), %r9d
	imull	%r8d, %ecx
	movl	%eax, 32(%rsp)
	leal	-1(%r8), %eax
	movl	%eax, 192(%rsp)
	movl	%r8d, %eax
	shrl	$2, %eax
	decl	%eax
	incq	%rax
	salq	$6, %rax
	movq	%rax, 112(%rsp)
	leal	-1(%rdi), %eax
	movl	%edx, 108(%rsp)
	subl	%ebx, %eax
	movslq	%ebx, %rdx
	movl	%esi, -56(%rsp)
	addq	%rdx, %rax
	leal	0(,%r8,4), %esi
	movl	%r10d, 208(%rsp)
	movl	%esi, 196(%rsp)
	movl	%r9d, -52(%rsp)
	movl	%ecx, -44(%rsp)
	movl	$0, -24(%rsp)
	movl	$0, -28(%rsp)
	movq	%rdx, -8(%rsp)
	movq	%rax, -16(%rsp)
.L34:
	movl	16(%rbp), %eax
	addl	$32, 16(%rbp)
	movl	8(%rsp), %ebx
	movl	%eax, -36(%rsp)
	addl	$31, %eax
	cmpl	%eax, %ebx
	cmovg	16(%rbp), %ebx
	movl	68(%rsp), %edi
	movl	%ebx, 52(%rsp)
	testl	%edi, %edi
	jle	.L57
	movl	-28(%rsp), %eax
	movl	-68(%rsp), %ebx
	movq	$0, 56(%rsp)
	addl	%eax, %ebx
	movl	%ebx, -104(%rsp)
	movl	-64(%rsp), %ebx
	addl	%eax, %ebx
	movl	%ebx, -100(%rsp)
	movl	-60(%rsp), %ebx
	addl	%eax, %ebx
	movl	%ebx, -96(%rsp)
	movl	-56(%rsp), %ebx
	addl	%eax, %ebx
	movl	%ebx, -92(%rsp)
	movl	-24(%rsp), %eax
	movl	-52(%rsp), %ebx
	addl	%eax, %ebx
	movl	%ebx, -88(%rsp)
	movl	-48(%rsp), %ebx
	addl	%eax, %ebx
	movl	%ebx, -84(%rsp)
	movl	-44(%rsp), %ebx
	addl	%eax, %ebx
	movl	%ebx, -80(%rsp)
	movl	-40(%rsp), %ebx
	addl	%eax, %ebx
	movl	-32(%rsp), %eax
	movl	%ebx, -76(%rsp)
	movl	%eax, 48(%rsp)
	movslq	208(%rsp), %rbx
	movl	192(%rsp), %eax
	movq	%rbx, 176(%rsp)
	subl	%ebx, %eax
	addq	%rbx, %rax
	movq	%rax, (%rsp)
.L56:
	movq	56(%rsp), %rbx
	movl	68(%rsp), %edi
	movl	%ebx, %eax
	leal	31(%rbx), %edx
	addl	$32, %eax
	cmpl	%edx, %edi
	cmovle	%edi, %eax
	movl	-36(%rsp), %edi
	movl	%eax, 44(%rsp)
	cmpl	%edi, 52(%rsp)
	jle	.L37
	subl	%ebx, %eax
	decl	%eax
	shrl	$2, %eax
	salq	$2, %rax
	movq	%rax, 24(%rsp)
	movl	-76(%rsp), %eax
	movl	48(%rsp), %edx
	movl	%eax, 244(%rsp)
	movl	-80(%rsp), %eax
	subl	-32(%rsp), %edx
	movl	%eax, 240(%rsp)
	movl	-84(%rsp), %eax
	movl	%ebx, 40(%rsp)
	movl	%eax, 236(%rsp)
	movl	-88(%rsp), %eax
	movl	%edx, 12(%rsp)
	movl	%eax, 232(%rsp)
	movl	-92(%rsp), %eax
	movl	%edi, 104(%rsp)
	movl	%eax, 100(%rsp)
	movl	-96(%rsp), %eax
	movq	%r15, 72(%rsp)
	movl	%eax, 96(%rsp)
	movl	-100(%rsp), %eax
	movl	%eax, 92(%rsp)
	movl	-104(%rsp), %eax
	movl	%eax, 88(%rsp)
	.p2align 4,,10
	.p2align 3
.L38:
	movl	40(%rsp), %ebx
	cmpl	%ebx, 44(%rsp)
	jle	.L42
	movq	56(%rsp), %rdi
	movslq	88(%rsp), %rdx
	movq	80(%rsp), %rsi
	leaq	(%rdi,%rdx), %rax
	salq	$4, %rax
	leaq	(%rsi,%rax), %r14
	movslq	92(%rsp), %rax
	movl	228(%rsp), %ecx
	addq	%rdi, %rax
	salq	$4, %rax
	leaq	(%rsi,%rax), %r13
	movslq	96(%rsp), %rax
	movl	48(%rsp), %r15d
	addq	%rdi, %rax
	salq	$4, %rax
	leaq	(%rsi,%rax), %rbx
	movslq	100(%rsp), %rax
	movl	%r15d, 224(%rsp)
	addq	%rdi, %rax
	salq	$4, %rax
	leaq	(%rsi,%rax), %r11
	movl	%ecx, %eax
	addl	%r15d, %eax
	movl	%eax, 216(%rsp)
	movl	%r15d, %eax
	subl	%ecx, %eax
	movl	%eax, 220(%rsp)
	movq	24(%rsp), %rax
	movslq	236(%rsp), %rcx
	addq	%rdi, %rax
	addq	%rdx, %rax
	salq	$4, %rax
	leaq	64(%rsi,%rax), %rax
	movq	%rax, 184(%rsp)
	movslq	232(%rsp), %rax
	movq	72(%rsp), %rdi
	movq	%rax, %rdx
	salq	$4, %rdx
	leaq	(%rdi,%rdx), %rsi
	salq	$4, %rcx
	movq	%rsi, 128(%rsp)
	movq	%rdi, %rsi
	addq	%rcx, %rsi
	movq	%rcx, 144(%rsp)
	movslq	240(%rsp), %rcx
	movq	%rsi, 136(%rsp)
	salq	$4, %rcx
	addq	%rdi, %rcx
	movq	%rcx, 152(%rsp)
	movslq	244(%rsp), %rcx
	movq	%rdi, %rsi
	salq	$4, %rcx
	addq	%rcx, %rsi
	movq	%rsi, 160(%rsp)
	movq	16(%rsp), %rsi
	movq	%rcx, 256(%rsp)
	leaq	(%rsi,%rax), %rcx
	salq	$4, %rcx
	leaq	128(%rdi,%rcx), %rsi
	movq	%rsi, 168(%rsp)
	movq	176(%rsp), %rsi
	negq	%rdx
	leaq	(%rax,%rsi), %rcx
	addq	(%rsp), %rax
	salq	$4, %rax
	leaq	16(%rdi,%rax), %rax
	movq	%rax, 248(%rsp)
	salq	$4, %rcx
	movl	12(%rsp), %eax
	addq	%rdi, %rcx
	movq	%rcx, 120(%rsp)
	movl	%eax, 212(%rsp)
	movq	%rdx, %r12
	.p2align 4,,10
	.p2align 3
.L41:
	movl	208(%rsp), %esi
	testl	%esi, %esi
	jle	.L81
	movslq	212(%rsp), %rdi
	movslq	220(%rsp), %rsi
	movslq	224(%rsp), %rcx
	movslq	216(%rsp), %rdx
	movq	200(%rsp), %rax
	salq	$4, %rdi
	salq	$4, %rsi
	salq	$4, %rcx
	salq	$4, %rdx
	vxorpd	%xmm5, %xmm5, %xmm5
	addq	%rax, %rdi
	addq	%rax, %rsi
	addq	%rax, %rcx
	addq	%rax, %rdx
	movq	160(%rsp), %r10
	movq	152(%rsp), %r9
	movq	136(%rsp), %r8
	movq	128(%rsp), %rax
	movq	168(%rsp), %r15
	vmovapd	%ymm5, 648(%rsp)
	vmovapd	%ymm5, 680(%rsp)
	vmovapd	%ymm5, 712(%rsp)
	vmovapd	%ymm5, 744(%rsp)
	vmovapd	%ymm5, 616(%rsp)
	vmovapd	%ymm5, 584(%rsp)
	vmovapd	%ymm5, 552(%rsp)
	vmovapd	%ymm5, 520(%rsp)
	vmovapd	%ymm5, 488(%rsp)
	vmovapd	%ymm5, 456(%rsp)
	vmovapd	%ymm5, 424(%rsp)
	vmovapd	%ymm5, 392(%rsp)
	vmovapd	%ymm5, 360(%rsp)
	vmovapd	%ymm5, 328(%rsp)
	vmovapd	%ymm5, 296(%rsp)
	vmovapd	%ymm5, 264(%rsp)
	.p2align 4,,10
	.p2align 3
.L39:
	vmovupd	(%rax), %ymm1
	vpermilpd	$5, (%rdi), %ymm3
	vmulpd	(%rdi), %ymm1, %ymm14
	vmulpd	%ymm3, %ymm1, %ymm2
	vpermilpd	$5, (%rsi), %ymm7
	vmulpd	(%rsi), %ymm1, %ymm12
	vpermilpd	$5, (%rdx), %ymm13
	vhsubpd	%ymm14, %ymm14, %ymm14
	vhaddpd	%ymm2, %ymm2, %ymm2
	vmulpd	(%rcx), %ymm1, %ymm10
	vhsubpd	%ymm12, %ymm12, %ymm12
	vblendpd	$10, %ymm2, %ymm14, %ymm14
	vmulpd	%ymm7, %ymm1, %ymm2
	vmulpd	(%rdx), %ymm1, %ymm8
	vmovupd	32(%rax), %ymm6
	vpermilpd	$5, 32(%rsi), %ymm9
	vmulpd	32(%rdi), %ymm6, %ymm4
	vhaddpd	%ymm2, %ymm2, %ymm2
	vhsubpd	%ymm8, %ymm8, %ymm8
	vmovapd	%ymm3, 1224(%rsp)
	vblendpd	$10, %ymm2, %ymm12, %ymm12
	vpermilpd	$5, (%rcx), %ymm2
	vhsubpd	%ymm4, %ymm4, %ymm4
	vmovapd	%ymm2, 1160(%rsp)
	vmulpd	%ymm2, %ymm1, %ymm2
	vmulpd	%ymm13, %ymm1, %ymm1
	vmulpd	32(%rsi), %ymm6, %ymm3
	vhsubpd	%ymm10, %ymm10, %ymm10
	vpermilpd	$5, 32(%rcx), %ymm15
	vhaddpd	%ymm2, %ymm2, %ymm2
	vhaddpd	%ymm1, %ymm1, %ymm1
	vhsubpd	%ymm3, %ymm3, %ymm3
	vblendpd	$10, %ymm2, %ymm10, %ymm10
	vblendpd	$10, %ymm1, %ymm8, %ymm8
	vpermilpd	$5, 32(%rdi), %ymm1
	vmulpd	32(%rcx), %ymm6, %ymm2
	vmovapd	%ymm1, 1096(%rsp)
	vmulpd	%ymm1, %ymm6, %ymm1
	vpermilpd	$5, 32(%rdx), %ymm11
	vmovupd	64(%rax), %ymm5
	vhsubpd	%ymm2, %ymm2, %ymm2
	vmovapd	%ymm13, 1128(%rsp)
	vhaddpd	%ymm1, %ymm1, %ymm1
	vmulpd	64(%rdi), %ymm5, %ymm13
	vmovupd	96(%rax), %ymm0
	vblendpd	$10, %ymm1, %ymm4, %ymm4
	vmulpd	%ymm9, %ymm6, %ymm1
	vmovapd	%ymm7, 1192(%rsp)
	vhsubpd	%ymm13, %ymm13, %ymm13
	vmovapd	%ymm9, 1064(%rsp)
	vmovapd	%ymm15, 1032(%rsp)
	vhaddpd	%ymm1, %ymm1, %ymm1
	vmovapd	%ymm11, 1000(%rsp)
	vaddpd	%ymm14, %ymm4, %ymm4
	vblendpd	$10, %ymm1, %ymm3, %ymm3
	vmulpd	%ymm15, %ymm6, %ymm1
	vaddpd	%ymm12, %ymm3, %ymm3
	subq	$-128, %rax
	subq	$-128, %rdi
	subq	$-128, %rsi
	vhaddpd	%ymm1, %ymm1, %ymm1
	subq	$-128, %rcx
	subq	$-128, %rdx
	vblendpd	$10, %ymm1, %ymm2, %ymm2
	vmulpd	-96(%rdx), %ymm6, %ymm1
	vmulpd	%ymm11, %ymm6, %ymm6
	vmulpd	-64(%rsi), %ymm5, %ymm11
	vaddpd	%ymm10, %ymm2, %ymm2
	subq	$-128, %r8
	vhsubpd	%ymm1, %ymm1, %ymm1
	vhaddpd	%ymm6, %ymm6, %ymm6
	vhsubpd	%ymm11, %ymm11, %ymm11
	subq	$-128, %r9
	vblendpd	$10, %ymm6, %ymm1, %ymm1
	vpermilpd	$5, -64(%rdi), %ymm6
	vaddpd	%ymm8, %ymm1, %ymm1
	vmovapd	%ymm6, 968(%rsp)
	vmulpd	%ymm6, %ymm5, %ymm6
	subq	$-128, %r10
	vhaddpd	%ymm6, %ymm6, %ymm6
	vblendpd	$10, %ymm6, %ymm13, %ymm13
	vpermilpd	$5, -64(%rsi), %ymm6
	vpermilpd	$5, -64(%rcx), %ymm15
	vmovapd	%ymm6, 936(%rsp)
	vmulpd	%ymm6, %ymm5, %ymm6
	vmulpd	-64(%rcx), %ymm5, %ymm9
	vmulpd	-64(%rdx), %ymm5, %ymm7
	vmovapd	%ymm15, 904(%rsp)
	vhaddpd	%ymm6, %ymm6, %ymm6
	vhsubpd	%ymm9, %ymm9, %ymm9
	vhsubpd	%ymm7, %ymm7, %ymm7
	vblendpd	$10, %ymm6, %ymm11, %ymm11
	vmulpd	%ymm15, %ymm5, %ymm6
	vhaddpd	%ymm6, %ymm6, %ymm6
	vblendpd	$10, %ymm6, %ymm9, %ymm9
	vpermilpd	$5, -64(%rdx), %ymm6
	vmulpd	%ymm6, %ymm5, %ymm5
	vmovapd	%ymm6, 872(%rsp)
	vmulpd	-32(%rdi), %ymm0, %ymm6
	vhaddpd	%ymm5, %ymm5, %ymm5
	vhsubpd	%ymm6, %ymm6, %ymm6
	vblendpd	$10, %ymm5, %ymm7, %ymm7
	vpermilpd	$5, -32(%rdi), %ymm5
	vmulpd	%ymm0, %ymm5, %ymm15
	vhaddpd	%ymm15, %ymm15, %ymm15
	vblendpd	$10, %ymm15, %ymm6, %ymm6
	vaddpd	%ymm13, %ymm6, %ymm6
	vaddpd	%ymm6, %ymm4, %ymm4
	vaddpd	264(%rsp), %ymm4, %ymm14
	vmulpd	-32(%rsi), %ymm0, %ymm4
	vmovapd	%ymm14, 264(%rsp)
	vpermilpd	$5, -32(%rsi), %ymm14
	vmulpd	%ymm14, %ymm0, %ymm6
	vhsubpd	%ymm4, %ymm4, %ymm4
	vmovapd	%ymm14, 840(%rsp)
	vhaddpd	%ymm6, %ymm6, %ymm6
	vblendpd	$10, %ymm6, %ymm4, %ymm4
	vaddpd	%ymm11, %ymm4, %ymm4
	vmovupd	-64(%r8), %ymm6
	vaddpd	%ymm4, %ymm3, %ymm3
	vaddpd	296(%rsp), %ymm3, %ymm12
	vmulpd	-32(%rcx), %ymm0, %ymm3
	vmovapd	%ymm12, 296(%rsp)
	vpermilpd	$5, -32(%rcx), %ymm12
	vmulpd	%ymm12, %ymm0, %ymm4
	vhsubpd	%ymm3, %ymm3, %ymm3
	vmovapd	%ymm12, 808(%rsp)
	vhaddpd	%ymm4, %ymm4, %ymm4
	vblendpd	$10, %ymm4, %ymm3, %ymm3
	vaddpd	%ymm9, %ymm3, %ymm3
	vaddpd	%ymm3, %ymm2, %ymm2
	vaddpd	328(%rsp), %ymm2, %ymm10
	vmulpd	-32(%rdx), %ymm0, %ymm2
	vmovapd	%ymm10, 328(%rsp)
	vpermilpd	$5, -32(%rdx), %ymm10
	vmulpd	%ymm10, %ymm0, %ymm0
	vhsubpd	%ymm2, %ymm2, %ymm2
	vmovapd	%ymm10, 776(%rsp)
	vhaddpd	%ymm0, %ymm0, %ymm0
	vblendpd	$10, %ymm0, %ymm2, %ymm2
	vaddpd	%ymm7, %ymm2, %ymm2
	vmovupd	-32(%r8), %ymm0
	vmovupd	-96(%r8), %ymm7
	vaddpd	%ymm2, %ymm1, %ymm1
	vmulpd	%ymm5, %ymm0, %ymm15
	vaddpd	360(%rsp), %ymm1, %ymm8
	vmovupd	-128(%r8), %ymm1
	vmovapd	%ymm8, 360(%rsp)
	vmulpd	-128(%rdi), %ymm1, %ymm14
	vmulpd	1224(%rsp), %ymm1, %ymm2
	vmulpd	-128(%rsi), %ymm1, %ymm12
	vmulpd	-128(%rcx), %ymm1, %ymm10
	vmulpd	-128(%rdx), %ymm1, %ymm8
	vhsubpd	%ymm14, %ymm14, %ymm14
	vhaddpd	%ymm2, %ymm2, %ymm2
	vhsubpd	%ymm12, %ymm12, %ymm12
	vmulpd	-96(%rdi), %ymm7, %ymm4
	vblendpd	$10, %ymm2, %ymm14, %ymm14
	vmulpd	1192(%rsp), %ymm1, %ymm2
	vhsubpd	%ymm8, %ymm8, %ymm8
	vmulpd	-96(%rsi), %ymm7, %ymm3
	vhsubpd	%ymm4, %ymm4, %ymm4
	vhsubpd	%ymm10, %ymm10, %ymm10
	vhaddpd	%ymm2, %ymm2, %ymm2
	vmulpd	-64(%rdi), %ymm6, %ymm13
	vhsubpd	%ymm3, %ymm3, %ymm3
	vblendpd	$10, %ymm2, %ymm12, %ymm12
	vmulpd	1160(%rsp), %ymm1, %ymm2
	vmulpd	1128(%rsp), %ymm1, %ymm1
	vhsubpd	%ymm13, %ymm13, %ymm13
	vmulpd	-64(%rsi), %ymm6, %ymm11
	vmulpd	-64(%rcx), %ymm6, %ymm9
	vhaddpd	%ymm2, %ymm2, %ymm2
	vhaddpd	%ymm1, %ymm1, %ymm1
	vhaddpd	%ymm15, %ymm15, %ymm15
	vblendpd	$10, %ymm2, %ymm10, %ymm10
	vblendpd	$10, %ymm1, %ymm8, %ymm8
	vmulpd	1096(%rsp), %ymm7, %ymm1
	vmulpd	-96(%rcx), %ymm7, %ymm2
	vhsubpd	%ymm11, %ymm11, %ymm11
	vhsubpd	%ymm9, %ymm9, %ymm9
	vhaddpd	%ymm1, %ymm1, %ymm1
	vhsubpd	%ymm2, %ymm2, %ymm2
	vblendpd	$10, %ymm1, %ymm4, %ymm4
	vmulpd	1064(%rsp), %ymm7, %ymm1
	vaddpd	%ymm14, %ymm4, %ymm4
	vhaddpd	%ymm1, %ymm1, %ymm1
	vblendpd	$10, %ymm1, %ymm3, %ymm3
	vmulpd	1032(%rsp), %ymm7, %ymm1
	vaddpd	%ymm12, %ymm3, %ymm3
	vhaddpd	%ymm1, %ymm1, %ymm1
	vblendpd	$10, %ymm1, %ymm2, %ymm2
	vmulpd	-96(%rdx), %ymm7, %ymm1
	vmulpd	1000(%rsp), %ymm7, %ymm7
	vaddpd	%ymm10, %ymm2, %ymm2
	vhsubpd	%ymm1, %ymm1, %ymm1
	vhaddpd	%ymm7, %ymm7, %ymm7
	vblendpd	$10, %ymm7, %ymm1, %ymm1
	vmulpd	968(%rsp), %ymm6, %ymm7
	vaddpd	%ymm8, %ymm1, %ymm1
	vhaddpd	%ymm7, %ymm7, %ymm7
	vblendpd	$10, %ymm7, %ymm13, %ymm13
	vmulpd	936(%rsp), %ymm6, %ymm7
	vhaddpd	%ymm7, %ymm7, %ymm7
	vblendpd	$10, %ymm7, %ymm11, %ymm11
	vmulpd	904(%rsp), %ymm6, %ymm7
	vhaddpd	%ymm7, %ymm7, %ymm7
	vblendpd	$10, %ymm7, %ymm9, %ymm9
	vmulpd	-64(%rdx), %ymm6, %ymm7
	vmulpd	872(%rsp), %ymm6, %ymm6
	vhsubpd	%ymm7, %ymm7, %ymm7
	vhaddpd	%ymm6, %ymm6, %ymm6
	vblendpd	$10, %ymm6, %ymm7, %ymm7
	vmulpd	-32(%rdi), %ymm0, %ymm6
	vhsubpd	%ymm6, %ymm6, %ymm6
	vblendpd	$10, %ymm15, %ymm6, %ymm6
	vaddpd	%ymm13, %ymm6, %ymm6
	vaddpd	%ymm6, %ymm4, %ymm4
	vmulpd	840(%rsp), %ymm0, %ymm6
	vaddpd	392(%rsp), %ymm4, %ymm4
	vmovapd	%ymm4, 392(%rsp)
	vmulpd	-32(%rsi), %ymm0, %ymm4
	vhaddpd	%ymm6, %ymm6, %ymm6
	vhsubpd	%ymm4, %ymm4, %ymm4
	vblendpd	$10, %ymm6, %ymm4, %ymm4
	vaddpd	%ymm11, %ymm4, %ymm4
	vaddpd	%ymm4, %ymm3, %ymm3
	vaddpd	424(%rsp), %ymm3, %ymm4
	vmulpd	-32(%rcx), %ymm0, %ymm3
	vmovapd	%ymm4, 424(%rsp)
	vmulpd	808(%rsp), %ymm0, %ymm4
	vhsubpd	%ymm3, %ymm3, %ymm3
	vhaddpd	%ymm4, %ymm4, %ymm4
	vblendpd	$10, %ymm4, %ymm3, %ymm3
	vaddpd	%ymm9, %ymm3, %ymm3
	vaddpd	%ymm3, %ymm2, %ymm2
	vaddpd	456(%rsp), %ymm2, %ymm4
	vmulpd	-32(%rdx), %ymm0, %ymm2
	vmulpd	776(%rsp), %ymm0, %ymm0
	vmovapd	%ymm4, 456(%rsp)
	vmovupd	-64(%r9), %ymm6
	vhsubpd	%ymm2, %ymm2, %ymm2
	vhaddpd	%ymm0, %ymm0, %ymm0
	vmulpd	-64(%rdi), %ymm6, %ymm13
	vmulpd	-64(%rsi), %ymm6, %ymm11
	vblendpd	$10, %ymm0, %ymm2, %ymm2
	vaddpd	%ymm7, %ymm2, %ymm2
	vmovupd	-96(%r9), %ymm7
	vhsubpd	%ymm13, %ymm13, %ymm13
	vaddpd	%ymm2, %ymm1, %ymm1
	vmulpd	-96(%rdi), %ymm7, %ymm4
	vmulpd	-96(%rsi), %ymm7, %ymm3
	vaddpd	488(%rsp), %ymm1, %ymm8
	vmovupd	-128(%r9), %ymm1
	vhsubpd	%ymm11, %ymm11, %ymm11
	vmulpd	-128(%rdi), %ymm1, %ymm14
	vmulpd	1224(%rsp), %ymm1, %ymm2
	vmulpd	-128(%rsi), %ymm1, %ymm12
	vmulpd	-128(%rcx), %ymm1, %ymm10
	vmovapd	%ymm8, 488(%rsp)
	vhsubpd	%ymm14, %ymm14, %ymm14
	vhaddpd	%ymm2, %ymm2, %ymm2
	vhsubpd	%ymm12, %ymm12, %ymm12
	vmulpd	-128(%rdx), %ymm1, %ymm8
	vblendpd	$10, %ymm2, %ymm14, %ymm14
	vmulpd	1192(%rsp), %ymm1, %ymm2
	vhsubpd	%ymm4, %ymm4, %ymm4
	vhsubpd	%ymm10, %ymm10, %ymm10
	vhsubpd	%ymm8, %ymm8, %ymm8
	vhsubpd	%ymm3, %ymm3, %ymm3
	vhaddpd	%ymm2, %ymm2, %ymm2
	vmulpd	-64(%rcx), %ymm6, %ymm9
	vmovupd	-32(%r9), %ymm0
	vblendpd	$10, %ymm2, %ymm12, %ymm12
	vmulpd	1160(%rsp), %ymm1, %ymm2
	vmulpd	1128(%rsp), %ymm1, %ymm1
	vhsubpd	%ymm9, %ymm9, %ymm9
	vmulpd	%ymm5, %ymm0, %ymm15
	vhaddpd	%ymm2, %ymm2, %ymm2
	vhaddpd	%ymm1, %ymm1, %ymm1
	vblendpd	$10, %ymm2, %ymm10, %ymm10
	vblendpd	$10, %ymm1, %ymm8, %ymm8
	vmulpd	1096(%rsp), %ymm7, %ymm1
	vmulpd	-96(%rcx), %ymm7, %ymm2
	vhaddpd	%ymm15, %ymm15, %ymm15
	vhaddpd	%ymm1, %ymm1, %ymm1
	vhsubpd	%ymm2, %ymm2, %ymm2
	vblendpd	$10, %ymm1, %ymm4, %ymm4
	vmulpd	1064(%rsp), %ymm7, %ymm1
	vaddpd	%ymm14, %ymm4, %ymm4
	vhaddpd	%ymm1, %ymm1, %ymm1
	vblendpd	$10, %ymm1, %ymm3, %ymm3
	vmulpd	1032(%rsp), %ymm7, %ymm1
	vaddpd	%ymm12, %ymm3, %ymm3
	vhaddpd	%ymm1, %ymm1, %ymm1
	vblendpd	$10, %ymm1, %ymm2, %ymm2
	vmulpd	-96(%rdx), %ymm7, %ymm1
	vmulpd	1000(%rsp), %ymm7, %ymm7
	vaddpd	%ymm10, %ymm2, %ymm2
	vhsubpd	%ymm1, %ymm1, %ymm1
	vhaddpd	%ymm7, %ymm7, %ymm7
	vblendpd	$10, %ymm7, %ymm1, %ymm1
	vmulpd	968(%rsp), %ymm6, %ymm7
	vaddpd	%ymm8, %ymm1, %ymm1
	vhaddpd	%ymm7, %ymm7, %ymm7
	vblendpd	$10, %ymm7, %ymm13, %ymm13
	vmulpd	936(%rsp), %ymm6, %ymm7
	vhaddpd	%ymm7, %ymm7, %ymm7
	vblendpd	$10, %ymm7, %ymm11, %ymm11
	vmulpd	904(%rsp), %ymm6, %ymm7
	vhaddpd	%ymm7, %ymm7, %ymm7
	vblendpd	$10, %ymm7, %ymm9, %ymm9
	vmulpd	-64(%rdx), %ymm6, %ymm7
	vmulpd	872(%rsp), %ymm6, %ymm6
	vhsubpd	%ymm7, %ymm7, %ymm7
	vhaddpd	%ymm6, %ymm6, %ymm6
	vblendpd	$10, %ymm6, %ymm7, %ymm7
	vmulpd	-32(%rdi), %ymm0, %ymm6
	vhsubpd	%ymm6, %ymm6, %ymm6
	vblendpd	$10, %ymm15, %ymm6, %ymm6
	vaddpd	%ymm13, %ymm6, %ymm6
	vaddpd	%ymm6, %ymm4, %ymm4
	vaddpd	520(%rsp), %ymm4, %ymm6
	vmulpd	-32(%rsi), %ymm0, %ymm4
	vmovapd	%ymm6, 520(%rsp)
	vmulpd	840(%rsp), %ymm0, %ymm6
	vhsubpd	%ymm4, %ymm4, %ymm4
	vhaddpd	%ymm6, %ymm6, %ymm6
	vblendpd	$10, %ymm6, %ymm4, %ymm4
	vaddpd	%ymm11, %ymm4, %ymm4
	vaddpd	%ymm4, %ymm3, %ymm3
	vmulpd	808(%rsp), %ymm0, %ymm4
	vaddpd	552(%rsp), %ymm3, %ymm6
	vmulpd	-32(%rcx), %ymm0, %ymm3
	vhaddpd	%ymm4, %ymm4, %ymm4
	vmovapd	%ymm6, 552(%rsp)
	vhsubpd	%ymm3, %ymm3, %ymm3
	vblendpd	$10, %ymm4, %ymm3, %ymm3
	vaddpd	%ymm9, %ymm3, %ymm3
	vmovupd	-128(%r10), %ymm4
	vaddpd	%ymm3, %ymm2, %ymm2
	vmulpd	-128(%rdx), %ymm4, %ymm12
	vmovupd	-96(%r10), %ymm3
	vaddpd	584(%rsp), %ymm2, %ymm6
	vmulpd	-32(%rdx), %ymm0, %ymm2
	vmulpd	776(%rsp), %ymm0, %ymm0
	vhsubpd	%ymm12, %ymm12, %ymm12
	vmulpd	-96(%rdi), %ymm3, %ymm11
	vmulpd	-96(%rsi), %ymm3, %ymm10
	vhsubpd	%ymm2, %ymm2, %ymm2
	vhaddpd	%ymm0, %ymm0, %ymm0
	vmovapd	%ymm6, 584(%rsp)
	vhsubpd	%ymm11, %ymm11, %ymm11
	vblendpd	$10, %ymm0, %ymm2, %ymm2
	vaddpd	%ymm7, %ymm2, %ymm2
	vmulpd	1224(%rsp), %ymm4, %ymm0
	vmovupd	-64(%r10), %ymm7
	vaddpd	%ymm2, %ymm1, %ymm1
	vmulpd	-128(%rdi), %ymm4, %ymm2
	vmovupd	-32(%r10), %ymm6
	vhaddpd	%ymm0, %ymm0, %ymm0
	vaddpd	616(%rsp), %ymm1, %ymm8
	vmulpd	-128(%rsi), %ymm4, %ymm1
	vhsubpd	%ymm2, %ymm2, %ymm2
	vmovapd	%ymm8, 616(%rsp)
	vmulpd	1160(%rsp), %ymm4, %ymm8
	vblendpd	$10, %ymm0, %ymm2, %ymm2
	vmulpd	1192(%rsp), %ymm4, %ymm0
	vhsubpd	%ymm1, %ymm1, %ymm1
	vhsubpd	%ymm10, %ymm10, %ymm10
	vhaddpd	%ymm8, %ymm8, %ymm8
	vmulpd	%ymm5, %ymm6, %ymm5
	vhaddpd	%ymm0, %ymm0, %ymm0
	vblendpd	$10, %ymm0, %ymm1, %ymm1
	vmulpd	-128(%rcx), %ymm4, %ymm0
	vmulpd	1128(%rsp), %ymm4, %ymm4
	vhaddpd	%ymm5, %ymm5, %ymm5
	vhsubpd	%ymm0, %ymm0, %ymm0
	vhaddpd	%ymm4, %ymm4, %ymm4
	vblendpd	$10, %ymm8, %ymm0, %ymm0
	vblendpd	$10, %ymm4, %ymm12, %ymm12
	vmulpd	1096(%rsp), %ymm3, %ymm4
	vhaddpd	%ymm4, %ymm4, %ymm4
	vblendpd	$10, %ymm4, %ymm11, %ymm11
	vmulpd	1064(%rsp), %ymm3, %ymm4
	vmulpd	-96(%rcx), %ymm3, %ymm9
	vmulpd	-96(%rdx), %ymm3, %ymm8
	vmulpd	-64(%rdi), %ymm7, %ymm13
	vmulpd	904(%rsp), %ymm7, %ymm14
	vhaddpd	%ymm4, %ymm4, %ymm4
	vhsubpd	%ymm9, %ymm9, %ymm9
	vhsubpd	%ymm8, %ymm8, %ymm8
	vblendpd	$10, %ymm4, %ymm10, %ymm10
	vmulpd	1032(%rsp), %ymm3, %ymm4
	vmulpd	1000(%rsp), %ymm3, %ymm3
	vhsubpd	%ymm13, %ymm13, %ymm13
	vhaddpd	%ymm14, %ymm14, %ymm14
	vmulpd	872(%rsp), %ymm7, %ymm15
	vhaddpd	%ymm4, %ymm4, %ymm4
	vhaddpd	%ymm3, %ymm3, %ymm3
	vaddpd	%ymm11, %ymm2, %ymm2
	vblendpd	$10, %ymm4, %ymm9, %ymm9
	vblendpd	$10, %ymm3, %ymm8, %ymm8
	vmulpd	968(%rsp), %ymm7, %ymm3
	vmulpd	-64(%rsi), %ymm7, %ymm4
	vaddpd	%ymm10, %ymm1, %ymm1
	vaddpd	%ymm9, %ymm0, %ymm0
	vaddpd	%ymm8, %ymm12, %ymm12
	vhaddpd	%ymm3, %ymm3, %ymm3
	vhsubpd	%ymm4, %ymm4, %ymm4
	vblendpd	$10, %ymm3, %ymm13, %ymm13
	vmulpd	936(%rsp), %ymm7, %ymm3
	vhaddpd	%ymm3, %ymm3, %ymm3
	vblendpd	$10, %ymm3, %ymm4, %ymm4
	vmulpd	-64(%rcx), %ymm7, %ymm3
	vhsubpd	%ymm3, %ymm3, %ymm3
	vblendpd	$10, %ymm14, %ymm3, %ymm3
	vmulpd	-64(%rdx), %ymm7, %ymm14
	vhaddpd	%ymm15, %ymm15, %ymm7
	vhsubpd	%ymm14, %ymm14, %ymm14
	vblendpd	$10, %ymm7, %ymm14, %ymm7
	vmulpd	-32(%rdi), %ymm6, %ymm14
	vhsubpd	%ymm14, %ymm14, %ymm14
	vblendpd	$10, %ymm5, %ymm14, %ymm14
	vaddpd	%ymm14, %ymm13, %ymm13
	vmulpd	840(%rsp), %ymm6, %ymm5
	vaddpd	%ymm13, %ymm2, %ymm2
	vaddpd	744(%rsp), %ymm2, %ymm2
	vhaddpd	%ymm5, %ymm5, %ymm5
	vmovapd	%ymm2, 744(%rsp)
	vmulpd	-32(%rsi), %ymm6, %ymm2
	vhsubpd	%ymm2, %ymm2, %ymm2
	vblendpd	$10, %ymm5, %ymm2, %ymm2
	vaddpd	%ymm2, %ymm4, %ymm4
	vmulpd	808(%rsp), %ymm6, %ymm2
	vaddpd	%ymm4, %ymm1, %ymm1
	vaddpd	712(%rsp), %ymm1, %ymm4
	vmulpd	-32(%rcx), %ymm6, %ymm1
	vhaddpd	%ymm2, %ymm2, %ymm2
	vmovapd	%ymm4, 712(%rsp)
	vhsubpd	%ymm1, %ymm1, %ymm1
	vblendpd	$10, %ymm2, %ymm1, %ymm1
	vaddpd	%ymm1, %ymm3, %ymm3
	vaddpd	%ymm3, %ymm0, %ymm0
	vaddpd	680(%rsp), %ymm0, %ymm5
	vmulpd	-32(%rdx), %ymm6, %ymm0
	vmulpd	776(%rsp), %ymm6, %ymm6
	vmovapd	%ymm5, 680(%rsp)
	vhsubpd	%ymm0, %ymm0, %ymm0
	vhaddpd	%ymm6, %ymm6, %ymm6
	vblendpd	$10, %ymm6, %ymm0, %ymm0
	vaddpd	%ymm0, %ymm7, %ymm7
	vaddpd	%ymm7, %ymm12, %ymm12
	vaddpd	648(%rsp), %ymm12, %ymm5
	vmovapd	%ymm5, 648(%rsp)
	cmpq	%rax, %r15
	jne	.L39
	vmovapd	264(%rsp), %ymm5
	vextractf128	$0x1, %ymm5, %xmm1
	vunpckhpd	%xmm1, %xmm1, %xmm3
	vunpckhpd	%xmm5, %xmm5, %xmm2
	vmovapd	%xmm5, %xmm0
	vaddsd	%xmm2, %xmm3, %xmm5
	vmovsd	%xmm5, 1224(%rsp)
	vaddsd	%xmm0, %xmm1, %xmm5
	vmovsd	%xmm5, 1192(%rsp)
	vmovapd	296(%rsp), %ymm5
	vextractf128	$0x1, %ymm5, %xmm0
	vunpckhpd	%xmm0, %xmm0, %xmm3
	vunpckhpd	%xmm5, %xmm5, %xmm2
	vmovapd	%xmm5, %xmm1
	vaddsd	%xmm2, %xmm3, %xmm5
	vmovsd	%xmm5, 1160(%rsp)
	vaddsd	%xmm1, %xmm0, %xmm5
	vmovsd	%xmm5, 1128(%rsp)
	vmovapd	328(%rsp), %ymm5
	vextractf128	$0x1, %ymm5, %xmm0
	vunpckhpd	%xmm0, %xmm0, %xmm2
	vunpckhpd	%xmm5, %xmm5, %xmm3
	vmovapd	%xmm5, %xmm1
	vaddsd	%xmm3, %xmm2, %xmm5
	vmovsd	%xmm5, 1096(%rsp)
	vaddsd	%xmm0, %xmm1, %xmm5
	vmovsd	%xmm5, 1064(%rsp)
	vmovapd	360(%rsp), %ymm5
	vextractf128	$0x1, %ymm5, %xmm0
	vunpckhpd	%xmm0, %xmm0, %xmm2
	vunpckhpd	%xmm5, %xmm5, %xmm3
	vmovapd	%xmm5, %xmm1
	vaddsd	%xmm3, %xmm2, %xmm5
	vmovsd	%xmm5, 1032(%rsp)
	vaddsd	%xmm1, %xmm0, %xmm5
	vmovsd	%xmm5, 1000(%rsp)
	vmovapd	392(%rsp), %ymm5
	vextractf128	$0x1, %ymm5, %xmm0
	vunpckhpd	%xmm0, %xmm0, %xmm2
	vunpckhpd	%xmm5, %xmm5, %xmm3
	vmovapd	%xmm5, %xmm1
	vaddsd	%xmm3, %xmm2, %xmm5
	vmovsd	%xmm5, 968(%rsp)
	vaddsd	%xmm1, %xmm0, %xmm5
	vmovsd	%xmm5, 936(%rsp)
	vmovapd	424(%rsp), %ymm5
	vextractf128	$0x1, %ymm5, %xmm0
	vunpckhpd	%xmm0, %xmm0, %xmm2
	vunpckhpd	%xmm5, %xmm5, %xmm3
	vmovapd	%xmm5, %xmm1
	vaddsd	%xmm3, %xmm2, %xmm5
	vmovsd	%xmm5, 904(%rsp)
	vaddsd	%xmm1, %xmm0, %xmm5
	vmovsd	%xmm5, 872(%rsp)
	vmovapd	456(%rsp), %ymm5
	vextractf128	$0x1, %ymm5, %xmm1
	vunpckhpd	%xmm1, %xmm1, %xmm3
	vunpckhpd	%xmm5, %xmm5, %xmm2
	vmovapd	%xmm5, %xmm0
	vaddsd	%xmm3, %xmm2, %xmm5
	vmovsd	%xmm5, 840(%rsp)
	vaddsd	%xmm0, %xmm1, %xmm5
	vmovsd	%xmm5, 808(%rsp)
	vmovapd	488(%rsp), %ymm5
	vextractf128	$0x1, %ymm5, %xmm0
	vunpckhpd	%xmm0, %xmm0, %xmm2
	vunpckhpd	%xmm5, %xmm5, %xmm3
	vmovapd	%xmm5, %xmm1
	vaddsd	%xmm3, %xmm2, %xmm5
	vmovsd	%xmm5, 776(%rsp)
	vaddsd	%xmm1, %xmm0, %xmm5
	vmovsd	%xmm5, 488(%rsp)
	vmovapd	520(%rsp), %ymm5
	vextractf128	$0x1, %ymm5, %xmm0
	vunpckhpd	%xmm0, %xmm0, %xmm2
	vunpckhpd	%xmm5, %xmm5, %xmm3
	vmovapd	%xmm5, %xmm1
	vaddsd	%xmm3, %xmm2, %xmm5
	vmovsd	%xmm5, 520(%rsp)
	vaddsd	%xmm1, %xmm0, %xmm5
	vmovsd	%xmm5, 456(%rsp)
	vmovapd	552(%rsp), %ymm5
	vextractf128	$0x1, %ymm5, %xmm0
	vunpckhpd	%xmm0, %xmm0, %xmm2
	vunpckhpd	%xmm5, %xmm5, %xmm3
	vmovapd	%xmm5, %xmm1
	vaddsd	%xmm3, %xmm2, %xmm5
	vmovsd	%xmm5, 552(%rsp)
	vaddsd	%xmm0, %xmm1, %xmm5
	vmovsd	%xmm5, 424(%rsp)
	vmovapd	584(%rsp), %ymm5
	vextractf128	$0x1, %ymm5, %xmm0
	vunpckhpd	%xmm0, %xmm0, %xmm2
	vunpckhpd	%xmm5, %xmm5, %xmm3
	vmovapd	%xmm5, %xmm1
	vaddsd	%xmm3, %xmm2, %xmm5
	vmovsd	%xmm5, 584(%rsp)
	vaddsd	%xmm1, %xmm0, %xmm5
	vmovsd	%xmm5, 392(%rsp)
	vmovapd	616(%rsp), %ymm5
	vextractf128	$0x1, %ymm5, %xmm0
	vunpckhpd	%xmm0, %xmm0, %xmm2
	vunpckhpd	%xmm5, %xmm5, %xmm3
	vmovapd	%xmm5, %xmm1
	vaddsd	%xmm3, %xmm2, %xmm5
	vmovsd	%xmm5, 616(%rsp)
	vaddsd	%xmm1, %xmm0, %xmm5
	vmovsd	%xmm5, 360(%rsp)
	vmovapd	744(%rsp), %ymm5
	vextractf128	$0x1, %ymm5, %xmm0
	vunpckhpd	%xmm0, %xmm0, %xmm2
	vunpckhpd	%xmm5, %xmm5, %xmm3
	vmovapd	%xmm5, %xmm1
	vaddsd	%xmm3, %xmm2, %xmm5
	vunpckhpd	%xmm4, %xmm4, %xmm2
	vmovsd	%xmm5, 744(%rsp)
	vaddsd	%xmm1, %xmm0, %xmm5
	vextractf128	$0x1, %ymm4, %xmm1
	vunpckhpd	%xmm1, %xmm1, %xmm3
	vmovsd	%xmm5, 328(%rsp)
	vaddsd	%xmm3, %xmm2, %xmm5
	vmovsd	%xmm5, 712(%rsp)
	vaddsd	%xmm4, %xmm1, %xmm5
	vmovsd	%xmm5, 296(%rsp)
	vmovapd	680(%rsp), %ymm5
	vextractf128	$0x1, %ymm5, %xmm0
	vunpckhpd	%xmm0, %xmm0, %xmm2
	vunpckhpd	%xmm5, %xmm5, %xmm3
	vmovapd	%xmm5, %xmm1
	vaddsd	%xmm3, %xmm2, %xmm5
	vmovsd	%xmm5, 680(%rsp)
	vaddsd	%xmm1, %xmm0, %xmm5
	vmovq	%xmm5, %r10
	vmovapd	648(%rsp), %ymm5
	vextractf128	$0x1, %ymm5, %xmm14
	vunpckhpd	%xmm14, %xmm14, %xmm15
	vunpckhpd	%xmm5, %xmm5, %xmm1
	vmovapd	%xmm5, %xmm0
	vaddsd	%xmm1, %xmm15, %xmm5
	vmovq	%xmm5, %r15
	vaddsd	%xmm0, %xmm14, %xmm5
	vmovsd	%xmm5, 648(%rsp)
.L46:
	movl	208(%rsp), %edi
	cmpl	%edi, 228(%rsp)
	jle	.L44
	movslq	216(%rsp), %rcx
	movq	176(%rsp), %rax
	movslq	212(%rsp), %r9
	movslq	220(%rsp), %r8
	movslq	224(%rsp), %rdi
	addq	%rcx, %rax
	salq	$4, %r9
	salq	$4, %r8
	salq	$4, %rdi
	movq	%r10, 264(%rsp)
	salq	$4, %rax
	negq	%rcx
	movq	%r9, %r10
	movq	120(%rsp), %rdx
	movq	%r8, %r9
	movq	%rdi, %r8
	movq	144(%rsp), %rdi
	addq	200(%rsp), %rax
	salq	$4, %rcx
	.p2align 4,,10
	.p2align 3
.L43:
	leaq	(%r10,%rax), %rsi
	vmovsd	8(%rdx), %xmm6
	vmovsd	(%rsi,%rcx), %xmm13
	vmovsd	(%rdx), %xmm7
	vmulsd	%xmm6, %xmm13, %xmm15
	vmovsd	8(%rsi,%rcx), %xmm3
	leaq	(%r9,%rax), %rsi
	vmovsd	(%rsi,%rcx), %xmm12
	vmovsd	8(%rsi,%rcx), %xmm2
	vfmadd231sd	%xmm3, %xmm7, %xmm15
	leaq	(%r8,%rax), %rsi
	vmovsd	(%rsi,%rcx), %xmm11
	vmovsd	8(%rsi,%rcx), %xmm1
	leaq	(%rdi,%rdx), %rsi
	vmovsd	(%rsi,%r12), %xmm5
	vmovsd	8(%rsi,%r12), %xmm4
	vaddsd	8(%r14), %xmm15, %xmm15
	movq	256(%rsp), %rsi
	vmovsd	(%rax), %xmm10
	addq	%rdx, %rsi
	vmovsd	(%rsi,%r12), %xmm8
	vmovsd	8(%rsi,%r12), %xmm9
	vmovsd	8(%rax), %xmm0
	vmovsd	%xmm15, 8(%r14)
	vmulsd	%xmm6, %xmm12, %xmm15
	vmovsd	%xmm13, %xmm13, %xmm14
	vfmadd213sd	(%r14), %xmm7, %xmm14
	addq	$16, %rdx
	addq	$16, %rax
	vfmadd231sd	%xmm7, %xmm2, %xmm15
	vfnmadd231sd	%xmm3, %xmm6, %xmm14
	vaddsd	24(%r14), %xmm15, %xmm15
	vmovsd	%xmm14, (%r14)
	vmovsd	%xmm15, 24(%r14)
	vmulsd	%xmm11, %xmm6, %xmm15
	vmovsd	%xmm12, %xmm12, %xmm14
	vfmadd213sd	16(%r14), %xmm7, %xmm14
	vfmadd231sd	%xmm7, %xmm1, %xmm15
	vfnmadd231sd	%xmm6, %xmm2, %xmm14
	vaddsd	40(%r14), %xmm15, %xmm15
	vmovsd	%xmm14, 16(%r14)
	vmovsd	%xmm15, 40(%r14)
	vmulsd	%xmm6, %xmm10, %xmm15
	vmovsd	%xmm7, %xmm7, %xmm14
	vfmadd213sd	32(%r14), %xmm11, %xmm14
	vfmadd231sd	%xmm0, %xmm7, %xmm15
	vfmadd213sd	48(%r14), %xmm10, %xmm7
	vfnmadd231sd	%xmm6, %xmm1, %xmm14
	vaddsd	56(%r14), %xmm15, %xmm15
	vfnmadd132sd	%xmm0, %xmm7, %xmm6
	vmovsd	%xmm14, 32(%r14)
	vmovsd	%xmm15, 56(%r14)
	vmovsd	%xmm13, %xmm13, %xmm7
	vmovsd	%xmm6, 48(%r14)
	vfmadd213sd	0(%r13), %xmm5, %xmm7
	vmulsd	%xmm4, %xmm13, %xmm6
	vfnmadd231sd	%xmm3, %xmm4, %xmm7
	vfmadd231sd	%xmm5, %xmm3, %xmm6
	vmovsd	%xmm7, 0(%r13)
	vaddsd	8(%r13), %xmm6, %xmm6
	vmovsd	%xmm12, %xmm12, %xmm7
	vfmadd213sd	16(%r13), %xmm5, %xmm7
	vmovsd	%xmm6, 8(%r13)
	vmulsd	%xmm4, %xmm12, %xmm6
	vfnmadd231sd	%xmm4, %xmm2, %xmm7
	vfmadd231sd	%xmm5, %xmm2, %xmm6
	vmovsd	%xmm7, 16(%r13)
	vmovsd	%xmm11, %xmm11, %xmm7
	vaddsd	24(%r13), %xmm6, %xmm6
	vfmadd213sd	32(%r13), %xmm5, %xmm7
	vmovsd	%xmm6, 24(%r13)
	vmulsd	%xmm11, %xmm4, %xmm6
	vfnmadd231sd	%xmm4, %xmm1, %xmm7
	vfmadd231sd	%xmm5, %xmm1, %xmm6
	vmovsd	%xmm7, 32(%r13)
	vaddsd	40(%r13), %xmm6, %xmm6
	vmovsd	%xmm6, 40(%r13)
	vmulsd	%xmm4, %xmm10, %xmm6
	vfmadd231sd	%xmm5, %xmm0, %xmm6
	vfmadd213sd	48(%r13), %xmm10, %xmm5
	vaddsd	56(%r13), %xmm6, %xmm6
	vfnmadd132sd	%xmm0, %xmm5, %xmm4
	vmovsd	%xmm6, 56(%r13)
	vmovsd	%xmm4, 48(%r13)
	vmulsd	%xmm9, %xmm13, %xmm4
	vfmadd231sd	%xmm3, %xmm8, %xmm4
	vmulsd	%xmm9, %xmm3, %xmm3
	vfmsub231sd	%xmm8, %xmm13, %xmm3
	vaddsd	(%rbx), %xmm3, %xmm5
	vmovsd	%xmm5, (%rbx)
	vaddsd	8(%rbx), %xmm4, %xmm5
	vmovsd	%xmm5, 8(%rbx)
	vmulsd	%xmm9, %xmm12, %xmm5
	vfmadd231sd	%xmm8, %xmm2, %xmm5
	vmulsd	%xmm9, %xmm2, %xmm2
	vfmsub231sd	%xmm8, %xmm12, %xmm2
	vaddsd	16(%rbx), %xmm2, %xmm6
	vmovsd	%xmm6, 16(%rbx)
	vaddsd	24(%rbx), %xmm5, %xmm6
	vmovsd	%xmm6, 24(%rbx)
	vmulsd	%xmm9, %xmm11, %xmm6
	vfmadd231sd	%xmm8, %xmm1, %xmm6
	vmulsd	%xmm9, %xmm1, %xmm1
	vfmsub231sd	%xmm11, %xmm8, %xmm1
	vaddsd	32(%rbx), %xmm1, %xmm7
	vmovsd	%xmm7, 32(%rbx)
	vaddsd	40(%rbx), %xmm6, %xmm7
	vmovsd	%xmm7, 40(%rbx)
	vmulsd	%xmm9, %xmm10, %xmm7
	vfmadd231sd	%xmm0, %xmm8, %xmm7
	vmulsd	%xmm9, %xmm0, %xmm0
	vfmsub231sd	%xmm8, %xmm10, %xmm0
	vaddsd	48(%rbx), %xmm0, %xmm8
	vmovsd	%xmm8, 48(%rbx)
	vaddsd	56(%rbx), %xmm7, %xmm8
	vmovsd	%xmm8, 56(%rbx)
	vaddsd	(%r11), %xmm3, %xmm3
	vmovsd	%xmm3, (%r11)
	vaddsd	8(%r11), %xmm4, %xmm4
	vaddsd	16(%r11), %xmm2, %xmm2
	vaddsd	24(%r11), %xmm5, %xmm5
	vaddsd	32(%r11), %xmm1, %xmm1
	vaddsd	40(%r11), %xmm6, %xmm6
	vaddsd	48(%r11), %xmm0, %xmm0
	vaddsd	56(%r11), %xmm7, %xmm7
	vmovsd	%xmm4, 8(%r11)
	vmovsd	%xmm2, 16(%r11)
	vmovsd	%xmm5, 24(%r11)
	vmovsd	%xmm1, 32(%r11)
	vmovsd	%xmm6, 40(%r11)
	vmovsd	%xmm0, 48(%r11)
	vmovsd	%xmm7, 56(%r11)
	cmpq	%rdx, 248(%rsp)
	jne	.L43
	movq	264(%rsp), %r10
.L44:
	vmovsd	1192(%rsp), %xmm5
	addq	$64, %r14
	vaddsd	-64(%r14), %xmm5, %xmm0
	vmovsd	1224(%rsp), %xmm5
	addq	$64, %r13
	vmovsd	%xmm0, -64(%r14)
	vaddsd	-56(%r14), %xmm5, %xmm0
	vmovsd	1128(%rsp), %xmm5
	addq	$64, %rbx
	vmovsd	%xmm0, -56(%r14)
	vaddsd	-48(%r14), %xmm5, %xmm0
	vmovsd	1160(%rsp), %xmm5
	addq	$64, %r11
	vmovsd	%xmm0, -48(%r14)
	vaddsd	-40(%r14), %xmm5, %xmm0
	vmovsd	1064(%rsp), %xmm5
	vmovsd	%xmm0, -40(%r14)
	vaddsd	-32(%r14), %xmm5, %xmm0
	vmovsd	1096(%rsp), %xmm5
	vmovsd	%xmm0, -32(%r14)
	vaddsd	-24(%r14), %xmm5, %xmm0
	vmovsd	1000(%rsp), %xmm5
	vmovsd	%xmm0, -24(%r14)
	vaddsd	-16(%r14), %xmm5, %xmm0
	vmovsd	1032(%rsp), %xmm5
	vmovsd	%xmm0, -16(%r14)
	vaddsd	-8(%r14), %xmm5, %xmm0
	vmovsd	936(%rsp), %xmm5
	vmovsd	%xmm0, -8(%r14)
	vaddsd	-64(%r13), %xmm5, %xmm0
	vmovsd	968(%rsp), %xmm5
	vmovsd	%xmm0, -64(%r13)
	vaddsd	-56(%r13), %xmm5, %xmm0
	vmovsd	872(%rsp), %xmm5
	vmovsd	%xmm0, -56(%r13)
	vaddsd	-48(%r13), %xmm5, %xmm0
	vmovsd	%xmm0, -48(%r13)
	vmovsd	904(%rsp), %xmm5
	vaddsd	-40(%r13), %xmm5, %xmm0
	vmovsd	808(%rsp), %xmm5
	vmovsd	%xmm0, -40(%r13)
	vaddsd	-32(%r13), %xmm5, %xmm0
	vmovsd	840(%rsp), %xmm5
	vmovsd	%xmm0, -32(%r13)
	vaddsd	-24(%r13), %xmm5, %xmm0
	vmovsd	488(%rsp), %xmm5
	vmovsd	%xmm0, -24(%r13)
	vaddsd	-16(%r13), %xmm5, %xmm0
	vmovsd	776(%rsp), %xmm5
	vmovsd	%xmm0, -16(%r13)
	vaddsd	-8(%r13), %xmm5, %xmm0
	vmovsd	456(%rsp), %xmm5
	vmovsd	%xmm0, -8(%r13)
	vaddsd	-64(%rbx), %xmm5, %xmm0
	vmovsd	520(%rsp), %xmm5
	vmovsd	%xmm0, -64(%rbx)
	vaddsd	-56(%rbx), %xmm5, %xmm0
	vmovsd	424(%rsp), %xmm5
	vmovsd	%xmm0, -56(%rbx)
	vaddsd	-48(%rbx), %xmm5, %xmm0
	vmovsd	552(%rsp), %xmm5
	vmovsd	%xmm0, -48(%rbx)
	vaddsd	-40(%rbx), %xmm5, %xmm0
	vmovsd	392(%rsp), %xmm5
	vmovsd	%xmm0, -40(%rbx)
	vaddsd	-32(%rbx), %xmm5, %xmm0
	vmovsd	584(%rsp), %xmm5
	vmovsd	%xmm0, -32(%rbx)
	vaddsd	-24(%rbx), %xmm5, %xmm0
	vmovsd	%xmm0, -24(%rbx)
	vmovsd	360(%rsp), %xmm5
	movl	196(%rsp), %eax
	vaddsd	-16(%rbx), %xmm5, %xmm0
	vmovsd	616(%rsp), %xmm5
	addl	%eax, 212(%rsp)
	vmovsd	%xmm0, -16(%rbx)
	vaddsd	-8(%rbx), %xmm5, %xmm0
	vmovsd	328(%rsp), %xmm5
	vmovsd	%xmm0, -8(%rbx)
	vaddsd	-64(%r11), %xmm5, %xmm0
	vmovsd	744(%rsp), %xmm5
	vmovsd	%xmm0, -64(%r11)
	vaddsd	-56(%r11), %xmm5, %xmm0
	vmovsd	296(%rsp), %xmm5
	vmovsd	%xmm0, -56(%r11)
	vaddsd	-48(%r11), %xmm5, %xmm0
	vmovsd	712(%rsp), %xmm5
	vmovsd	%xmm0, -48(%r11)
	vaddsd	-40(%r11), %xmm5, %xmm0
	vmovq	%r10, %xmm5
	vmovsd	%xmm0, -40(%r11)
	vaddsd	-32(%r11), %xmm5, %xmm0
	vmovsd	680(%rsp), %xmm5
	vmovsd	%xmm0, -32(%r11)
	vaddsd	-24(%r11), %xmm5, %xmm0
	vmovsd	648(%rsp), %xmm5
	vaddsd	-16(%r11), %xmm5, %xmm14
	vmovq	%r15, %xmm5
	vaddsd	-8(%r11), %xmm5, %xmm15
	vmovsd	%xmm0, -24(%r11)
	vmovsd	%xmm14, -16(%r11)
	vmovsd	%xmm15, -8(%r11)
	addl	%eax, 216(%rsp)
	addl	%eax, 220(%rsp)
	addl	%eax, 224(%rsp)
	cmpq	%r14, 184(%rsp)
	jne	.L41
.L42:
	movl	68(%rsp), %ebx
	cmpl	%ebx, 64(%rsp)
	jle	.L47
	movq	-8(%rsp), %rdi
	movslq	88(%rsp), %rax
	movq	80(%rsp), %rbx
	leaq	(%rax,%rdi), %rdx
	salq	$4, %rdx
	leaq	(%rbx,%rdx), %r13
	movslq	92(%rsp), %rdx
	addq	-16(%rsp), %rax
	addq	%rdi, %rdx
	salq	$4, %rdx
	salq	$4, %rax
	leaq	(%rbx,%rdx), %r15
	leaq	16(%rbx,%rax), %rax
	movslq	96(%rsp), %rdx
	movq	%rax, 968(%rsp)
	movslq	232(%rsp), %rax
	addq	%rdi, %rdx
	salq	$4, %rdx
	movq	%rax, %r9
	movq	%rax, 1000(%rsp)
	movslq	236(%rsp), %rax
	leaq	(%rbx,%rdx), %r14
	movslq	100(%rsp), %rdx
	movq	%rax, %r8
	movq	%rax, 1032(%rsp)
	movslq	240(%rsp), %rax
	addq	%rdi, %rdx
	movq	%rax, 1064(%rsp)
	movq	%rax, %rdi
	salq	$4, %rdx
	movslq	244(%rsp), %rax
	addq	%rbx, %rdx
	movq	%rdx, 1224(%rsp)
	movq	%rax, %rsi
	movq	72(%rsp), %rdx
	movq	%rax, 1096(%rsp)
	movq	%r14, 1160(%rsp)
	salq	$4, %r9
	salq	$4, %r8
	salq	$4, %rdi
	salq	$4, %rsi
	movl	32(%rsp), %r12d
	movq	200(%rsp), %r14
	movq	%r15, 1192(%rsp)
	addq	%rdx, %r9
	addq	%rdx, %r8
	addq	%rdx, %rdi
	addq	%rdx, %rsi
	movq	%r13, %r15
	.p2align 4,,10
	.p2align 3
.L48:
	movl	228(%rsp), %ecx
	testl	%ecx, %ecx
	jle	.L82
	cmpl	$2, 192(%rsp)
	jbe	.L66
	movslq	%r12d, %rcx
	vxorpd	%xmm8, %xmm8, %xmm8
	salq	$4, %rcx
	movq	112(%rsp), %r10
	addq	%r14, %rcx
	xorl	%eax, %eax
	vmovapd	%ymm8, %ymm5
	vmovapd	%ymm8, %ymm10
	vmovapd	%ymm8, %ymm9
	vmovapd	%ymm8, %ymm7
	vmovapd	%ymm8, %ymm6
	vmovapd	%ymm8, %ymm4
	vmovapd	%ymm8, %ymm3
	.p2align 4,,10
	.p2align 3
.L50:
	vmovupd	(%rcx,%rax), %ymm0
	vmovupd	(%r9,%rax), %ymm2
	vunpcklpd	32(%rcx,%rax), %ymm0, %ymm1
	vunpcklpd	32(%r9,%rax), %ymm2, %ymm11
	vunpckhpd	32(%rcx,%rax), %ymm0, %ymm0
	vunpckhpd	32(%r9,%rax), %ymm2, %ymm2
	vpermpd	$216, %ymm1, %ymm1
	vpermpd	$216, %ymm0, %ymm0
	vpermpd	$216, %ymm2, %ymm2
	vmulpd	%ymm1, %ymm2, %ymm12
	vmulpd	%ymm0, %ymm2, %ymm2
	vpermpd	$216, %ymm11, %ymm11
	vfmadd231pd	%ymm0, %ymm11, %ymm12
	vfmsub132pd	%ymm1, %ymm2, %ymm11
	vmovupd	(%r8,%rax), %ymm2
	vaddpd	%ymm12, %ymm4, %ymm4
	vaddpd	%ymm11, %ymm3, %ymm3
	vunpcklpd	32(%r8,%rax), %ymm2, %ymm11
	vunpckhpd	32(%r8,%rax), %ymm2, %ymm2
	vpermpd	$216, %ymm11, %ymm11
	vpermpd	$216, %ymm2, %ymm2
	vmulpd	%ymm1, %ymm2, %ymm12
	vmulpd	%ymm0, %ymm2, %ymm2
	vfmadd231pd	%ymm0, %ymm11, %ymm12
	vfmsub132pd	%ymm1, %ymm2, %ymm11
	vmovupd	(%rdi,%rax), %ymm2
	vaddpd	%ymm12, %ymm6, %ymm6
	vaddpd	%ymm11, %ymm5, %ymm5
	vunpcklpd	32(%rdi,%rax), %ymm2, %ymm11
	vunpckhpd	32(%rdi,%rax), %ymm2, %ymm2
	vpermpd	$216, %ymm11, %ymm11
	vpermpd	$216, %ymm2, %ymm2
	vmulpd	%ymm1, %ymm2, %ymm12
	vmulpd	%ymm0, %ymm2, %ymm2
	vfmadd231pd	%ymm0, %ymm11, %ymm12
	vfmsub132pd	%ymm1, %ymm2, %ymm11
	vmovupd	(%rsi,%rax), %ymm2
	vaddpd	%ymm12, %ymm8, %ymm8
	vaddpd	%ymm11, %ymm7, %ymm7
	vunpcklpd	32(%rsi,%rax), %ymm2, %ymm11
	vunpckhpd	32(%rsi,%rax), %ymm2, %ymm2
	vpermpd	$216, %ymm11, %ymm11
	vpermpd	$216, %ymm2, %ymm2
	vmulpd	%ymm1, %ymm2, %ymm12
	vmulpd	%ymm0, %ymm2, %ymm2
	addq	$64, %rax
	vfmadd231pd	%ymm0, %ymm11, %ymm12
	vfmsub132pd	%ymm1, %ymm2, %ymm11
	vaddpd	%ymm12, %ymm10, %ymm10
	vaddpd	%ymm11, %ymm9, %ymm9
	cmpq	%r10, %rax
	jne	.L50
	vextractf128	$0x1, %ymm10, %xmm1
	vaddpd	%xmm10, %xmm1, %xmm1
	movl	108(%rsp), %eax
	vunpckhpd	%xmm1, %xmm1, %xmm0
	vaddpd	%xmm1, %xmm0, %xmm0
	vextractf128	$0x1, %ymm9, %xmm1
	vaddpd	%xmm9, %xmm1, %xmm1
	movl	%eax, %ecx
	vunpckhpd	%xmm1, %xmm1, %xmm2
	vaddpd	%xmm1, %xmm2, %xmm2
	vextractf128	$0x1, %ymm8, %xmm1
	vaddpd	%xmm8, %xmm1, %xmm1
	vunpcklpd	%xmm0, %xmm2, %xmm2
	vunpckhpd	%xmm1, %xmm1, %xmm0
	vaddpd	%xmm1, %xmm0, %xmm0
	vextractf128	$0x1, %ymm7, %xmm1
	vaddpd	%xmm7, %xmm1, %xmm1
	vunpckhpd	%xmm1, %xmm1, %xmm7
	vaddpd	%xmm1, %xmm7, %xmm7
	vextractf128	$0x1, %ymm6, %xmm1
	vaddpd	%xmm6, %xmm1, %xmm1
	vunpcklpd	%xmm0, %xmm7, %xmm7
	vunpckhpd	%xmm1, %xmm1, %xmm0
	vaddpd	%xmm1, %xmm0, %xmm0
	vextractf128	$0x1, %ymm5, %xmm1
	vaddpd	%xmm5, %xmm1, %xmm1
	vunpckhpd	%xmm1, %xmm1, %xmm5
	vaddpd	%xmm1, %xmm5, %xmm5
	vextractf128	$0x1, %ymm4, %xmm1
	vaddpd	%xmm4, %xmm1, %xmm1
	vunpcklpd	%xmm0, %xmm5, %xmm5
	vunpckhpd	%xmm1, %xmm1, %xmm0
	vaddpd	%xmm1, %xmm0, %xmm0
	vextractf128	$0x1, %ymm3, %xmm1
	vaddpd	%xmm3, %xmm1, %xmm1
	vunpckhpd	%xmm1, %xmm1, %xmm3
	vaddpd	%xmm1, %xmm3, %xmm3
	vunpcklpd	%xmm0, %xmm3, %xmm3
	cmpl	%eax, 228(%rsp)
	je	.L55
.L49:
	movl	228(%rsp), %ebx
	subl	%ecx, %ebx
	movl	%ebx, 1128(%rsp)
	cmpl	$1, %ebx
	je	.L52
	movslq	%r12d, %r10
	movq	1000(%rsp), %r11
	addq	%rcx, %r10
	salq	$4, %r10
	leaq	(%rcx,%r11), %r13
	addq	%r14, %r10
	vmovupd	16(%r10), %xmm4
	vmovupd	(%r10), %xmm0
	salq	$4, %r13
	addq	%rdx, %r13
	vunpcklpd	%xmm4, %xmm0, %xmm1
	vmovupd	16(%r13), %xmm8
	vunpckhpd	%xmm4, %xmm0, %xmm0
	vmovupd	0(%r13), %xmm4
	movq	1032(%rsp), %r11
	vunpcklpd	%xmm8, %xmm4, %xmm6
	vunpckhpd	%xmm8, %xmm4, %xmm4
	vmulpd	%xmm1, %xmm4, %xmm8
	vmulpd	%xmm0, %xmm4, %xmm4
	leaq	(%rcx,%r11), %rbx
	salq	$4, %rbx
	addq	%rdx, %rbx
	vfmadd231pd	%xmm0, %xmm6, %xmm8
	vmovupd	16(%rbx), %xmm9
	vfmsub132pd	%xmm1, %xmm4, %xmm6
	vmovupd	(%rbx), %xmm4
	movq	1064(%rsp), %r11
	vunpcklpd	%xmm9, %xmm4, %xmm10
	vunpckhpd	%xmm9, %xmm4, %xmm4
	vmulpd	%xmm1, %xmm4, %xmm9
	vmulpd	%xmm0, %xmm4, %xmm4
	addq	%rcx, %r11
	salq	$4, %r11
	addq	%rdx, %r11
	vfmadd231pd	%xmm0, %xmm10, %xmm9
	vmovupd	16(%r11), %xmm11
	vfmsub132pd	%xmm1, %xmm4, %xmm10
	vmovupd	(%r11), %xmm4
	addq	1096(%rsp), %rcx
	vunpcklpd	%xmm11, %xmm4, %xmm12
	vunpckhpd	%xmm11, %xmm4, %xmm4
	vmulpd	%xmm1, %xmm4, %xmm11
	vmulpd	%xmm0, %xmm4, %xmm4
	salq	$4, %rcx
	addq	%rdx, %rcx
	vmovupd	16(%rcx), %xmm14
	vfmadd231pd	%xmm0, %xmm12, %xmm11
	vfmsub132pd	%xmm1, %xmm4, %xmm12
	vmovupd	(%rcx), %xmm4
	movl	1128(%rsp), %ebx
	vunpcklpd	%xmm14, %xmm4, %xmm13
	vunpckhpd	%xmm14, %xmm4, %xmm4
	vmulpd	%xmm1, %xmm4, %xmm14
	vmulpd	%xmm0, %xmm4, %xmm4
	movl	%ebx, %ecx
	andl	$-2, %ecx
	addl	%ecx, %eax
	vfmadd231pd	%xmm0, %xmm13, %xmm14
	vfmsub132pd	%xmm1, %xmm4, %xmm13
	vunpckhpd	%xmm14, %xmm14, %xmm0
	vaddpd	%xmm14, %xmm0, %xmm0
	vmovsd	%xmm0, %xmm0, %xmm1
	vunpckhpd	%xmm13, %xmm13, %xmm0
	vaddpd	%xmm13, %xmm0, %xmm0
	vunpcklpd	%xmm1, %xmm0, %xmm0
	vaddpd	%xmm0, %xmm2, %xmm2
	vunpckhpd	%xmm11, %xmm11, %xmm0
	vaddpd	%xmm11, %xmm0, %xmm0
	vmovsd	%xmm0, %xmm0, %xmm1
	vunpckhpd	%xmm12, %xmm12, %xmm0
	vaddpd	%xmm12, %xmm0, %xmm0
	vunpcklpd	%xmm1, %xmm0, %xmm0
	vaddpd	%xmm0, %xmm7, %xmm7
	vunpckhpd	%xmm9, %xmm9, %xmm0
	vaddpd	%xmm9, %xmm0, %xmm0
	vmovsd	%xmm0, %xmm0, %xmm1
	vunpckhpd	%xmm10, %xmm10, %xmm0
	vaddpd	%xmm10, %xmm0, %xmm0
	vunpcklpd	%xmm1, %xmm0, %xmm0
	vaddpd	%xmm0, %xmm5, %xmm5
	vunpckhpd	%xmm8, %xmm8, %xmm0
	vaddpd	%xmm8, %xmm0, %xmm0
	vmovsd	%xmm0, %xmm0, %xmm1
	vunpckhpd	%xmm6, %xmm6, %xmm0
	vaddpd	%xmm6, %xmm0, %xmm0
	vunpcklpd	%xmm1, %xmm0, %xmm0
	vaddpd	%xmm0, %xmm3, %xmm3
	cmpl	%ebx, %ecx
	je	.L55
.L52:
	leal	(%r12,%rax), %ecx
	movl	232(%rsp), %ebx
	movslq	%ecx, %rcx
	salq	$4, %rcx
	vmovupd	(%r14,%rcx), %xmm0
	leal	(%rbx,%rax), %ecx
	movslq	%ecx, %rcx
	salq	$4, %rcx
	vmovupd	(%rdx,%rcx), %xmm1
	vpermilpd	$1, %xmm0, %xmm4
	vpermilpd	$0, %xmm1, %xmm6
	vpermilpd	$3, %xmm1, %xmm1
	vmulpd	%xmm4, %xmm1, %xmm1
	vmovapd	%xmm6, %xmm8
	movl	236(%rsp), %ebx
	leal	(%rbx,%rax), %ecx
	vfmadd132pd	%xmm0, %xmm1, %xmm8
	vfmsub132pd	%xmm0, %xmm1, %xmm6
	movslq	%ecx, %rcx
	salq	$4, %rcx
	movl	240(%rsp), %ebx
	vmovsd	%xmm6, %xmm8, %xmm1
	vaddpd	%xmm1, %xmm3, %xmm3
	vmovupd	(%rdx,%rcx), %xmm1
	leal	(%rbx,%rax), %ecx
	vpermilpd	$0, %xmm1, %xmm6
	vpermilpd	$3, %xmm1, %xmm1
	vmulpd	%xmm4, %xmm1, %xmm1
	vmovapd	%xmm6, %xmm8
	movslq	%ecx, %rcx
	salq	$4, %rcx
	addl	244(%rsp), %eax
	vfmadd132pd	%xmm0, %xmm1, %xmm8
	vfmsub132pd	%xmm0, %xmm1, %xmm6
	cltq
	salq	$4, %rax
	vmovsd	%xmm6, %xmm8, %xmm1
	vaddpd	%xmm1, %xmm5, %xmm5
	vmovupd	(%rdx,%rcx), %xmm1
	vpermilpd	$0, %xmm1, %xmm6
	vpermilpd	$3, %xmm1, %xmm1
	vmulpd	%xmm4, %xmm1, %xmm1
	vmovapd	%xmm6, %xmm8
	vfmadd132pd	%xmm0, %xmm1, %xmm8
	vfmsub132pd	%xmm0, %xmm1, %xmm6
	vmovsd	%xmm6, %xmm8, %xmm1
	vaddpd	%xmm1, %xmm7, %xmm7
	vmovupd	(%rdx,%rax), %xmm1
	vpermilpd	$0, %xmm1, %xmm6
	vpermilpd	$3, %xmm1, %xmm1
	vmulpd	%xmm4, %xmm1, %xmm1
	vmovapd	%xmm6, %xmm4
	vfmadd132pd	%xmm0, %xmm1, %xmm4
	vfmsub132pd	%xmm0, %xmm1, %xmm6
	vmovsd	%xmm6, %xmm4, %xmm0
	vaddpd	%xmm0, %xmm2, %xmm2
.L55:
	vaddpd	(%r15), %xmm3, %xmm3
	movq	1192(%rsp), %rax
	movq	1160(%rsp), %rbx
	vmovupd	%xmm3, (%r15)
	vaddpd	(%rax), %xmm5, %xmm5
	movq	1224(%rsp), %rcx
	addq	$16, %rax
	vmovupd	%xmm5, -16(%rax)
	vaddpd	(%rbx), %xmm7, %xmm7
	addq	$16, %rcx
	addq	$16, %rbx
	vmovupd	%xmm7, -16(%rbx)
	vaddpd	-16(%rcx), %xmm2, %xmm2
	addq	$16, %r15
	movq	%rax, 1192(%rsp)
	vmovupd	%xmm2, -16(%rcx)
	movq	%rbx, 1160(%rsp)
	movq	%rcx, 1224(%rsp)
	addl	228(%rsp), %r12d
	cmpq	968(%rsp), %r15
	jne	.L48
.L47:
	addl	$4, 104(%rsp)
	movl	36(%rsp), %eax
	addl	%eax, 88(%rsp)
	addl	%eax, 92(%rsp)
	addl	%eax, 96(%rsp)
	addl	%eax, 100(%rsp)
	movl	104(%rsp), %ebx
	movl	196(%rsp), %eax
	addl	%eax, 232(%rsp)
	addl	%eax, 236(%rsp)
	addl	%eax, 240(%rsp)
	addl	%eax, 244(%rsp)
	cmpl	%ebx, 52(%rsp)
	jg	.L38
	movq	72(%rsp), %r15
.L37:
	addq	$32, 56(%rsp)
	movl	-20(%rsp), %ebx
	addl	%ebx, 48(%rsp)
	movq	56(%rsp), %rax
	cmpl	%eax, 68(%rsp)
	jg	.L56
.L57:
	movl	-72(%rsp), %ebx
	movl	8(%rsp), %eax
	addl	%ebx, -28(%rsp)
	movl	-20(%rsp), %ebx
	addl	%ebx, -24(%rsp)
	cmpl	16(%rbp), %eax
	jg	.L34
.L35:
	movl	8(%rsp), %eax
	cmpl	%eax, 24(%rbp)
	jle	.L79
	movl	64(%rsp), %edx
	testl	%edx, %edx
	jle	.L79
	movl	228(%rsp), %edi
	movl	%eax, %ebx
	imull	%edi, %eax
	imull	%edx, %ebx
	movl	%eax, %r12d
	movl	%edi, %eax
	shrl	%eax
	decl	%eax
	incq	%rax
	salq	$5, %rax
	movq	%rax, %r11
	movq	80(%rsp), %rax
	andl	$-2, %edi
	leaq	16(%rax), %r14
	leal	-1(%rdx), %eax
	movq	%rax, 1224(%rsp)
	movl	%edi, %r13d
.L31:
	movq	1224(%rsp), %rdi
	movslq	%ebx, %rax
	movslq	%r12d, %r10
	movq	%rax, %r8
	leaq	(%rdi,%rax), %rsi
	movq	%r10, %rdx
	salq	$4, %r8
	salq	$4, %rsi
	salq	$4, %rdx
	addq	80(%rsp), %r8
	addq	%r14, %rsi
	addq	%r15, %rdx
	xorl	%r9d, %r9d
.L64:
	movl	228(%rsp), %eax
	vxorpd	%xmm0, %xmm0, %xmm0
	testl	%eax, %eax
	jle	.L63
	cmpl	$1, 228(%rsp)
	je	.L67
	movslq	%r9d, %rdi
	movq	%rdi, %rcx
	salq	$4, %rcx
	addq	200(%rsp), %rcx
	xorl	%eax, %eax
	vxorpd	%xmm3, %xmm3, %xmm3
.L59:
	vmovupd	(%rcx,%rax), %ymm0
	vmovupd	(%rdx,%rax), %ymm1
	vpermilpd	$5, %ymm0, %ymm4
	vpermilpd	$0, %ymm1, %ymm2
	vpermilpd	$15, %ymm1, %ymm1
	vmulpd	%ymm4, %ymm1, %ymm1
	vmovapd	%ymm0, %ymm4
	addq	$32, %rax
	vfmadd132pd	%ymm2, %ymm1, %ymm4
	vfmsub132pd	%ymm2, %ymm1, %ymm0
	vshufpd	$10, %ymm4, %ymm0, %ymm0
	vaddpd	%ymm0, %ymm3, %ymm3
	cmpq	%r11, %rax
	jne	.L59
	vextractf128	$0x1, %ymm3, %xmm0
	vaddpd	%xmm3, %xmm0, %xmm0
	movl	%r13d, %eax
	cmpl	%r13d, 228(%rsp)
	je	.L63
.L58:
	leaq	(%rax,%r10), %rcx
	addq	%rdi, %rax
	movq	200(%rsp), %rdi
	salq	$4, %rcx
	salq	$4, %rax
	vmovupd	(%rdi,%rax), %xmm2
	vmovupd	(%r15,%rcx), %xmm1
	vpermilpd	$1, %xmm2, %xmm3
	vpermilpd	$0, %xmm1, %xmm4
	vpermilpd	$3, %xmm1, %xmm1
	vmulpd	%xmm3, %xmm1, %xmm1
	vmovapd	%xmm2, %xmm3
	vfmadd132pd	%xmm4, %xmm1, %xmm3
	vfmsub132pd	%xmm4, %xmm1, %xmm2
	vmovsd	%xmm2, %xmm3, %xmm1
	vaddpd	%xmm1, %xmm0, %xmm0
.L63:
	vmovupd	%xmm0, (%r8)
	addq	$16, %r8
	addl	228(%rsp), %r9d
	cmpq	%rsi, %r8
	jne	.L64
	incl	8(%rsp)
	addl	64(%rsp), %ebx
	addl	228(%rsp), %r12d
	movl	8(%rsp), %eax
	cmpl	%eax, 24(%rbp)
	jne	.L31
.L79:
	vzeroupper
	leaq	-40(%rbp), %rsp
	popq	%rbx
	popq	%r12
	popq	%r13
	popq	%r14
	popq	%r15
	popq	%rbp
	.cfi_remember_state
	.cfi_def_cfa 7, 8
	ret
	.p2align 4,,10
	.p2align 3
.L81:
	.cfi_restore_state
	xorl	%r15d, %r15d
	movq	$0x000000000, 648(%rsp)
	movq	%r15, 680(%rsp)
	movq	%r15, 296(%rsp)
	movq	%r15, 712(%rsp)
	movq	%r15, 328(%rsp)
	movq	%r15, 744(%rsp)
	movq	%r15, 360(%rsp)
	movq	%r15, 616(%rsp)
	movq	%r15, 392(%rsp)
	movq	%r15, 584(%rsp)
	movq	%r15, 424(%rsp)
	movq	%r15, 552(%rsp)
	movq	%r15, 456(%rsp)
	movq	%r15, 520(%rsp)
	movq	%r15, 488(%rsp)
	movq	%r15, 776(%rsp)
	movq	%r15, 808(%rsp)
	movq	%r15, 840(%rsp)
	movq	%r15, 872(%rsp)
	movq	%r15, 904(%rsp)
	movq	%r15, 936(%rsp)
	movq	%r15, 968(%rsp)
	movq	%r15, 1000(%rsp)
	movq	%r15, 1032(%rsp)
	movq	%r15, 1064(%rsp)
	movq	%r15, 1096(%rsp)
	movq	%r15, 1128(%rsp)
	movq	%r15, 1160(%rsp)
	movq	%r15, 1192(%rsp)
	movq	%r15, 1224(%rsp)
	movq	%r15, %r10
	jmp	.L46
	.p2align 4,,10
	.p2align 3
.L82:
	vxorpd	%xmm2, %xmm2, %xmm2
	vmovapd	%xmm2, %xmm7
	vmovapd	%xmm2, %xmm5
	vmovapd	%xmm2, %xmm3
	jmp	.L55
.L66:
	vxorpd	%xmm2, %xmm2, %xmm2
	vmovapd	%xmm2, %xmm7
	vmovapd	%xmm2, %xmm5
	vmovapd	%xmm2, %xmm3
	xorl	%ecx, %ecx
	xorl	%eax, %eax
	jmp	.L49
.L67:
	vxorpd	%xmm0, %xmm0, %xmm0
	xorl	%eax, %eax
	movslq	%r9d, %rdi
	jmp	.L58
	.cfi_endproc
.LFE10941:
	.size	_Z15mul_mt_internalP7ComplexIdvES1_S1_iiiii, .-_Z15mul_mt_internalP7ComplexIdvES1_S1_iiiii
	.p2align 4
	.globl	_Z19mul_mt_internal_c32P7ComplexIfvES1_S1_iiiii
	.type	_Z19mul_mt_internal_c32P7ComplexIfvES1_S1_iiiii, @function
_Z19mul_mt_internal_c32P7ComplexIfvES1_S1_iiiii:
.LFB10927:
	.cfi_startproc
	endbr64
	pushq	%rbp
	.cfi_def_cfa_offset 16
	.cfi_offset 6, -16
	movq	%rsp, %rbp
	.cfi_def_cfa_register 6
	pushq	%r15
	pushq	%r14
	pushq	%r13
	pushq	%r12
	pushq	%rbx
	andq	$-32, %rsp
	subq	$1192, %rsp
	.cfi_offset 15, -24
	.cfi_offset 14, -32
	.cfi_offset 13, -40
	.cfi_offset 12, -48
	.cfi_offset 3, -56
	movq	%rdi, 48(%rsp)
	movq	%rsi, 184(%rsp)
	movq	%rdx, 56(%rsp)
	movl	%r8d, 196(%rsp)
	movl	%r9d, 40(%rsp)
	movl	24(%rbp), %eax
	movl	24(%rbp), %edi
	subl	16(%rbp), %eax
	andl	$3, %eax
	subl	%eax, %edi
	movl	%edi, -28(%rsp)
	cmpl	%edi, 16(%rbp)
	jge	.L90
	movl	%r9d, %esi
	sall	$6, %esi
	movl	%esi, -100(%rsp)
	movl	%r8d, %esi
	sall	$6, %esi
	movl	%esi, -32(%rsp)
	movl	%r9d, %esi
	imull	16(%rbp), %esi
	movl	%r9d, %eax
	andl	$-4, %eax
	movl	%esi, -96(%rsp)
	movl	16(%rbp), %esi
	movl	%eax, %edi
	movl	%eax, 44(%rsp)
	leal	0(,%r9,4), %eax
	leal	1(%rsi), %edx
	movl	%eax, 16(%rsp)
	movl	%r9d, %eax
	imull	%edx, %eax
	movl	%r9d, %ebx
	movl	%r8d, %r15d
	movl	%eax, -48(%rsp)
	movl	16(%rbp), %eax
	andl	$-16, %r15d
	leal	2(%rax), %ecx
	movl	%r9d, %eax
	imull	%ecx, %eax
	imull	%r8d, %edx
	movl	%r8d, %r14d
	movl	%eax, -80(%rsp)
	movl	16(%rbp), %eax
	movl	%edx, -44(%rsp)
	addl	$3, %eax
	imull	%eax, %ebx
	imull	%r8d, %eax
	movl	%r8d, %edx
	andl	$-8, %edx
	movl	%eax, -56(%rsp)
	leal	(%r8,%r8), %eax
	movl	%eax, 12(%rsp)
	leal	-1(%r15), %eax
	shrl	$4, %eax
	salq	$4, %rax
	movq	%rax, 104(%rsp)
	movl	%edi, %eax
	imull	%r8d, %eax
	imull	16(%rbp), %r14d
	imull	%r8d, %ecx
	movl	%eax, -8(%rsp)
	leal	-1(%r8), %eax
	movl	%eax, 112(%rsp)
	movl	%r8d, %eax
	shrl	$3, %eax
	decl	%eax
	incq	%rax
	salq	$6, %rax
	movq	%rax, 88(%rsp)
	leal	-1(%r9), %eax
	movl	%edx, 84(%rsp)
	subl	%edi, %eax
	movslq	%edi, %rdx
	movl	%ebx, -68(%rsp)
	addq	%rdx, %rax
	leal	0(,%r8,4), %ebx
	movl	%r15d, 192(%rsp)
	movl	%ebx, 152(%rsp)
	movl	%r14d, -64(%rsp)
	movl	%ecx, -60(%rsp)
	movl	$0, -36(%rsp)
	movl	$0, -40(%rsp)
	movq	%rdx, -16(%rsp)
	movq	%rax, -24(%rsp)
.L89:
	movl	16(%rbp), %eax
	addl	$64, 16(%rbp)
	movl	-28(%rsp), %edi
	movl	%eax, -52(%rsp)
	addl	$63, %eax
	cmpl	%eax, %edi
	cmovg	16(%rbp), %edi
	movl	44(%rsp), %esi
	movl	%edi, 28(%rsp)
	testl	%esi, %esi
	jle	.L112
	movl	-40(%rsp), %eax
	movl	-96(%rsp), %edi
	movq	$0, 32(%rsp)
	addl	%eax, %edi
	movl	%edi, -92(%rsp)
	movl	-48(%rsp), %edi
	addl	%eax, %edi
	movl	%edi, -88(%rsp)
	movl	-80(%rsp), %edi
	addl	%eax, %edi
	movl	%edi, -84(%rsp)
	movl	-68(%rsp), %edi
	addl	%eax, %edi
	movl	%edi, -76(%rsp)
	movl	-36(%rsp), %eax
	movl	-64(%rsp), %edi
	addl	%eax, %edi
	movl	%edi, -72(%rsp)
	movl	-44(%rsp), %edi
	addl	%eax, %edi
	movl	%edi, -112(%rsp)
	movl	-60(%rsp), %edi
	addl	%eax, %edi
	movl	%edi, -108(%rsp)
	movl	-56(%rsp), %edi
	addl	%eax, %edi
	movl	196(%rsp), %eax
	movl	%edi, -104(%rsp)
	movl	%eax, 24(%rsp)
.L111:
	movq	32(%rsp), %rdi
	movl	44(%rsp), %esi
	movl	%edi, %eax
	leal	63(%rdi), %edx
	addl	$64, %eax
	cmpl	%edx, %esi
	cmovle	%esi, %eax
	movl	-52(%rsp), %esi
	movl	%eax, 20(%rsp)
	cmpl	%esi, 28(%rsp)
	jle	.L92
	subl	%edi, %eax
	decl	%eax
	shrl	$2, %eax
	salq	$2, %rax
	movq	%rax, (%rsp)
	movl	-104(%rsp), %eax
	movl	12(%rsp), %edx
	movl	%eax, 164(%rsp)
	movl	-108(%rsp), %eax
	addl	24(%rsp), %edx
	movl	%eax, 160(%rsp)
	movl	-112(%rsp), %eax
	movl	%edi, 8(%rsp)
	movl	%eax, 156(%rsp)
	movl	-72(%rsp), %eax
	movl	%edx, -4(%rsp)
	movl	%eax, 116(%rsp)
	movl	-76(%rsp), %eax
	movl	%esi, 80(%rsp)
	movl	%eax, 76(%rsp)
	movl	-84(%rsp), %eax
	movl	%eax, 72(%rsp)
	movl	-88(%rsp), %eax
	movl	%eax, 68(%rsp)
	movl	-92(%rsp), %eax
	movl	%eax, 64(%rsp)
	movq	184(%rsp), %rax
	subq	$-128, %rax
	movq	%rax, 96(%rsp)
	.p2align 4,,10
	.p2align 3
.L93:
	movl	8(%rsp), %edi
	cmpl	%edi, 20(%rsp)
	jle	.L97
	movq	32(%rsp), %rsi
	movslq	64(%rsp), %rdx
	movq	56(%rsp), %rdi
	leaq	(%rdx,%rsi), %rax
	leaq	(%rdi,%rax,8), %rbx
	movslq	68(%rsp), %rax
	movl	24(%rsp), %ecx
	addq	%rsi, %rax
	leaq	(%rdi,%rax,8), %r11
	movslq	72(%rsp), %rax
	movl	%ecx, 172(%rsp)
	addq	%rsi, %rax
	leaq	(%rdi,%rax,8), %r12
	movslq	76(%rsp), %rax
	addq	%rsi, %rax
	leaq	(%rdi,%rax,8), %r14
	movl	%ecx, %eax
	subl	196(%rsp), %eax
	movl	%eax, 168(%rsp)
	addl	12(%rsp), %eax
	movl	%eax, 176(%rsp)
	movq	(%rsp), %rax
	addq	%rsi, %rax
	addq	%rdx, %rax
	leaq	32(%rdi,%rax,8), %rax
	movq	48(%rsp), %rsi
	movq	%rax, 128(%rsp)
	movslq	116(%rsp), %rax
	leaq	(%rsi,%rax,8), %r13
	movslq	156(%rsp), %rax
	leaq	(%rsi,%rax,8), %r15
	movslq	160(%rsp), %rax
	leaq	(%rsi,%rax,8), %rax
	movq	%rax, 120(%rsp)
	movslq	164(%rsp), %rax
	leaq	(%rsi,%rax,8), %rax
	movq	%rax, 144(%rsp)
	movl	-4(%rsp), %eax
	movl	%eax, 180(%rsp)
	.p2align 4,,10
	.p2align 3
.L96:
	movl	192(%rsp), %ecx
	testl	%ecx, %ecx
	jle	.L137
	movq	184(%rsp), %rdi
	movslq	172(%rsp), %rcx
	movslq	168(%rsp), %rdx
	leaq	(%rdi,%rcx,8), %r10
	movslq	176(%rsp), %rcx
	leaq	(%rdi,%rdx,8), %rax
	leaq	(%rdi,%rcx,8), %r9
	movslq	180(%rsp), %rcx
	addq	104(%rsp), %rdx
	leaq	(%rdi,%rcx,8), %r8
	movq	96(%rsp), %rdi
	vxorps	%xmm5, %xmm5, %xmm5
	leaq	(%rdi,%rdx,8), %rdi
	movq	%rdi, 1160(%rsp)
	movq	%r11, 136(%rsp)
	movq	144(%rsp), %rdi
	movq	120(%rsp), %rsi
	movq	1160(%rsp), %r11
	movq	%r15, %rcx
	movq	%r13, %rdx
	vmovaps	%ymm5, 584(%rsp)
	vmovaps	%ymm5, 616(%rsp)
	vmovaps	%ymm5, 648(%rsp)
	vmovaps	%ymm5, 680(%rsp)
	vmovaps	%ymm5, 552(%rsp)
	vmovaps	%ymm5, 520(%rsp)
	vmovaps	%ymm5, 488(%rsp)
	vmovaps	%ymm5, 456(%rsp)
	vmovaps	%ymm5, 424(%rsp)
	vmovaps	%ymm5, 392(%rsp)
	vmovaps	%ymm5, 360(%rsp)
	vmovaps	%ymm5, 328(%rsp)
	vmovaps	%ymm5, 296(%rsp)
	vmovaps	%ymm5, 264(%rsp)
	vmovaps	%ymm5, 232(%rsp)
	vmovaps	%ymm5, 200(%rsp)
	.p2align 4,,10
	.p2align 3
.L94:
	vmovups	(%rdx), %ymm1
	vpermilps	$177, (%rax), %ymm3
	vmulps	(%rax), %ymm1, %ymm14
	vmulps	%ymm3, %ymm1, %ymm2
	vpermilps	$177, (%r10), %ymm4
	vmulps	(%r10), %ymm1, %ymm12
	vpermilps	$177, (%r8), %ymm15
	vhsubps	%ymm14, %ymm14, %ymm14
	vhaddps	%ymm2, %ymm2, %ymm2
	vmulps	(%r9), %ymm1, %ymm10
	vpermilps	$80, %ymm14, %ymm14
	vpermilps	$80, %ymm2, %ymm2
	vblendps	$170, %ymm2, %ymm14, %ymm14
	vmulps	%ymm4, %ymm1, %ymm2
	vhsubps	%ymm12, %ymm12, %ymm12
	vmulps	(%r8), %ymm1, %ymm8
	vmovups	32(%rdx), %ymm5
	vpermilps	$80, %ymm12, %ymm12
	vhaddps	%ymm2, %ymm2, %ymm2
	vmovaps	%ymm4, 1128(%rsp)
	vhsubps	%ymm8, %ymm8, %ymm8
	vpermilps	$80, %ymm2, %ymm2
	vblendps	$170, %ymm2, %ymm12, %ymm12
	vpermilps	$177, (%r9), %ymm2
	vpermilps	$80, %ymm8, %ymm8
	vmovaps	%ymm2, 1096(%rsp)
	vmulps	%ymm2, %ymm1, %ymm2
	vmulps	%ymm15, %ymm1, %ymm1
	vmulps	32(%rax), %ymm5, %ymm4
	vpermilps	$177, 32(%r10), %ymm9
	vmovaps	%ymm3, 1160(%rsp)
	vmulps	32(%r10), %ymm5, %ymm3
	vhaddps	%ymm1, %ymm1, %ymm1
	vhsubps	%ymm4, %ymm4, %ymm4
	vhsubps	%ymm10, %ymm10, %ymm10
	vpermilps	$80, %ymm1, %ymm1
	vblendps	$170, %ymm1, %ymm8, %ymm8
	vpermilps	$177, 32(%rax), %ymm1
	vpermilps	$80, %ymm4, %ymm4
	vmovaps	%ymm1, 1032(%rsp)
	vmulps	%ymm1, %ymm5, %ymm1
	vhaddps	%ymm2, %ymm2, %ymm2
	vhsubps	%ymm3, %ymm3, %ymm3
	vpermilps	$177, 32(%r9), %ymm13
	vpermilps	$80, %ymm2, %ymm2
	vhaddps	%ymm1, %ymm1, %ymm1
	vpermilps	$80, %ymm10, %ymm10
	vpermilps	$80, %ymm3, %ymm3
	vpermilps	$80, %ymm1, %ymm1
	vblendps	$170, %ymm1, %ymm4, %ymm4
	vmulps	%ymm9, %ymm5, %ymm1
	vblendps	$170, %ymm2, %ymm10, %ymm10
	vmulps	32(%r9), %ymm5, %ymm2
	vpermilps	$177, 32(%r8), %ymm11
	vmovups	64(%rdx), %ymm6
	vhaddps	%ymm1, %ymm1, %ymm1
	vmovaps	%ymm13, 968(%rsp)
	vhsubps	%ymm2, %ymm2, %ymm2
	vpermilps	$80, %ymm1, %ymm1
	vblendps	$170, %ymm1, %ymm3, %ymm3
	vmulps	%ymm13, %ymm5, %ymm1
	vpermilps	$80, %ymm2, %ymm2
	vmulps	64(%rax), %ymm6, %ymm13
	vmovups	96(%rdx), %ymm0
	vmovaps	%ymm15, 1064(%rsp)
	vhaddps	%ymm1, %ymm1, %ymm1
	vmovaps	%ymm9, 1000(%rsp)
	vhsubps	%ymm13, %ymm13, %ymm13
	vpermilps	$80, %ymm1, %ymm1
	vblendps	$170, %ymm1, %ymm2, %ymm2
	vmulps	32(%r8), %ymm5, %ymm1
	vmulps	%ymm11, %ymm5, %ymm5
	vmovaps	%ymm11, 936(%rsp)
	vmulps	64(%r10), %ymm6, %ymm11
	vpermilps	$80, %ymm13, %ymm13
	vhsubps	%ymm1, %ymm1, %ymm1
	vhaddps	%ymm5, %ymm5, %ymm5
	vaddps	%ymm14, %ymm4, %ymm4
	vpermilps	$80, %ymm1, %ymm1
	vpermilps	$80, %ymm5, %ymm5
	vblendps	$170, %ymm5, %ymm1, %ymm1
	vpermilps	$177, 64(%rax), %ymm5
	vhsubps	%ymm11, %ymm11, %ymm11
	vmovaps	%ymm5, 904(%rsp)
	vmulps	%ymm5, %ymm6, %ymm5
	vpermilps	$177, 64(%r10), %ymm7
	vpermilps	$80, %ymm11, %ymm11
	vmulps	64(%r9), %ymm6, %ymm9
	vmovaps	%ymm7, 872(%rsp)
	vhaddps	%ymm5, %ymm5, %ymm5
	vpermilps	$177, 64(%r8), %ymm15
	vaddps	%ymm12, %ymm3, %ymm3
	vpermilps	$80, %ymm5, %ymm5
	vblendps	$170, %ymm5, %ymm13, %ymm13
	vmulps	%ymm7, %ymm6, %ymm5
	vhsubps	%ymm9, %ymm9, %ymm9
	vmovaps	%ymm15, 840(%rsp)
	vaddps	%ymm10, %ymm2, %ymm2
	vpermilps	$80, %ymm9, %ymm9
	vhaddps	%ymm5, %ymm5, %ymm5
	vaddps	%ymm8, %ymm1, %ymm1
	subq	$-128, %rax
	vpermilps	$80, %ymm5, %ymm5
	vblendps	$170, %ymm5, %ymm11, %ymm11
	vpermilps	$177, 64(%r9), %ymm5
	subq	$-128, %r10
	vmulps	%ymm6, %ymm5, %ymm7
	subq	$-128, %r9
	subq	$-128, %r8
	subq	$-128, %rdx
	subq	$-128, %rcx
	vhaddps	%ymm7, %ymm7, %ymm7
	subq	$-128, %rsi
	subq	$-128, %rdi
	vpermilps	$80, %ymm7, %ymm7
	vblendps	$170, %ymm7, %ymm9, %ymm9
	vmulps	-64(%r8), %ymm6, %ymm7
	vmulps	%ymm15, %ymm6, %ymm6
	vpermilps	$177, -32(%rax), %ymm15
	vmovaps	%ymm15, 808(%rsp)
	vhsubps	%ymm7, %ymm7, %ymm7
	vhaddps	%ymm6, %ymm6, %ymm6
	vmulps	%ymm15, %ymm0, %ymm15
	vpermilps	$80, %ymm7, %ymm7
	vpermilps	$80, %ymm6, %ymm6
	vblendps	$170, %ymm6, %ymm7, %ymm7
	vmulps	-32(%rax), %ymm0, %ymm6
	vhaddps	%ymm15, %ymm15, %ymm15
	vpermilps	$80, %ymm15, %ymm15
	vhsubps	%ymm6, %ymm6, %ymm6
	vpermilps	$80, %ymm6, %ymm6
	vblendps	$170, %ymm15, %ymm6, %ymm6
	vaddps	%ymm13, %ymm6, %ymm6
	vaddps	%ymm6, %ymm4, %ymm4
	vaddps	200(%rsp), %ymm4, %ymm14
	vmulps	-32(%r10), %ymm0, %ymm4
	vmovaps	%ymm14, 200(%rsp)
	vpermilps	$177, -32(%r10), %ymm14
	vmulps	%ymm14, %ymm0, %ymm6
	vhsubps	%ymm4, %ymm4, %ymm4
	vmovaps	%ymm14, 776(%rsp)
	vpermilps	$80, %ymm4, %ymm4
	vhaddps	%ymm6, %ymm6, %ymm6
	vpermilps	$80, %ymm6, %ymm6
	vblendps	$170, %ymm6, %ymm4, %ymm4
	vaddps	%ymm11, %ymm4, %ymm4
	vmovups	-64(%rcx), %ymm6
	vaddps	%ymm4, %ymm3, %ymm3
	vaddps	232(%rsp), %ymm3, %ymm12
	vmulps	-32(%r9), %ymm0, %ymm3
	vmovaps	%ymm12, 232(%rsp)
	vpermilps	$177, -32(%r9), %ymm12
	vmulps	%ymm12, %ymm0, %ymm4
	vhsubps	%ymm3, %ymm3, %ymm3
	vmovaps	%ymm12, 744(%rsp)
	vpermilps	$80, %ymm3, %ymm3
	vhaddps	%ymm4, %ymm4, %ymm4
	vpermilps	$80, %ymm4, %ymm4
	vblendps	$170, %ymm4, %ymm3, %ymm3
	vaddps	%ymm9, %ymm3, %ymm3
	vaddps	%ymm3, %ymm2, %ymm2
	vaddps	264(%rsp), %ymm2, %ymm10
	vmulps	-32(%r8), %ymm0, %ymm2
	vmovaps	%ymm10, 264(%rsp)
	vpermilps	$177, -32(%r8), %ymm10
	vmulps	%ymm10, %ymm0, %ymm0
	vhsubps	%ymm2, %ymm2, %ymm2
	vmovaps	%ymm10, 712(%rsp)
	vpermilps	$80, %ymm2, %ymm2
	vhaddps	%ymm0, %ymm0, %ymm0
	vpermilps	$80, %ymm0, %ymm0
	vblendps	$170, %ymm0, %ymm2, %ymm2
	vaddps	%ymm7, %ymm2, %ymm2
	vmovups	-32(%rcx), %ymm0
	vmovups	-96(%rcx), %ymm7
	vaddps	%ymm2, %ymm1, %ymm1
	vaddps	296(%rsp), %ymm1, %ymm8
	vmovups	-128(%rcx), %ymm1
	vmovaps	%ymm8, 296(%rsp)
	vmulps	-128(%rax), %ymm1, %ymm14
	vmulps	1160(%rsp), %ymm1, %ymm2
	vmulps	-128(%r10), %ymm1, %ymm12
	vmulps	-128(%r9), %ymm1, %ymm10
	vmulps	-128(%r8), %ymm1, %ymm8
	vhsubps	%ymm14, %ymm14, %ymm14
	vhaddps	%ymm2, %ymm2, %ymm2
	vhsubps	%ymm12, %ymm12, %ymm12
	vpermilps	$80, %ymm14, %ymm14
	vpermilps	$80, %ymm2, %ymm2
	vblendps	$170, %ymm2, %ymm14, %ymm14
	vmulps	1128(%rsp), %ymm1, %ymm2
	vpermilps	$80, %ymm12, %ymm12
	vhsubps	%ymm8, %ymm8, %ymm8
	vmulps	-96(%rax), %ymm7, %ymm4
	vmulps	-96(%r10), %ymm7, %ymm3
	vhaddps	%ymm2, %ymm2, %ymm2
	vpermilps	$80, %ymm8, %ymm8
	vhsubps	%ymm10, %ymm10, %ymm10
	vpermilps	$80, %ymm2, %ymm2
	vblendps	$170, %ymm2, %ymm12, %ymm12
	vmulps	1096(%rsp), %ymm1, %ymm2
	vmulps	1064(%rsp), %ymm1, %ymm1
	vhsubps	%ymm4, %ymm4, %ymm4
	vhsubps	%ymm3, %ymm3, %ymm3
	vpermilps	$80, %ymm10, %ymm10
	vpermilps	$80, %ymm4, %ymm4
	vhaddps	%ymm1, %ymm1, %ymm1
	vhaddps	%ymm2, %ymm2, %ymm2
	vpermilps	$80, %ymm3, %ymm3
	vpermilps	$80, %ymm1, %ymm1
	vblendps	$170, %ymm1, %ymm8, %ymm8
	vmulps	1032(%rsp), %ymm7, %ymm1
	vpermilps	$80, %ymm2, %ymm2
	vblendps	$170, %ymm2, %ymm10, %ymm10
	vmulps	-96(%r9), %ymm7, %ymm2
	vmulps	-64(%rax), %ymm6, %ymm13
	vhaddps	%ymm1, %ymm1, %ymm1
	vmulps	-64(%r10), %ymm6, %ymm11
	vmulps	-64(%r9), %ymm6, %ymm9
	vpermilps	$80, %ymm1, %ymm1
	vblendps	$170, %ymm1, %ymm4, %ymm4
	vmulps	1000(%rsp), %ymm7, %ymm1
	vhsubps	%ymm2, %ymm2, %ymm2
	vhsubps	%ymm13, %ymm13, %ymm13
	vhsubps	%ymm11, %ymm11, %ymm11
	vpermilps	$80, %ymm2, %ymm2
	vhaddps	%ymm1, %ymm1, %ymm1
	vpermilps	$80, %ymm13, %ymm13
	vpermilps	$80, %ymm11, %ymm11
	vpermilps	$80, %ymm1, %ymm1
	vblendps	$170, %ymm1, %ymm3, %ymm3
	vmulps	968(%rsp), %ymm7, %ymm1
	vhsubps	%ymm9, %ymm9, %ymm9
	vmulps	808(%rsp), %ymm0, %ymm15
	vaddps	%ymm14, %ymm4, %ymm4
	vpermilps	$80, %ymm9, %ymm9
	vhaddps	%ymm1, %ymm1, %ymm1
	vaddps	%ymm12, %ymm3, %ymm3
	vhaddps	%ymm15, %ymm15, %ymm15
	vpermilps	$80, %ymm1, %ymm1
	vblendps	$170, %ymm1, %ymm2, %ymm2
	vmulps	-96(%r8), %ymm7, %ymm1
	vmulps	936(%rsp), %ymm7, %ymm7
	vpermilps	$80, %ymm15, %ymm15
	vaddps	%ymm10, %ymm2, %ymm2
	vhsubps	%ymm1, %ymm1, %ymm1
	vhaddps	%ymm7, %ymm7, %ymm7
	vpermilps	$80, %ymm1, %ymm1
	vpermilps	$80, %ymm7, %ymm7
	vblendps	$170, %ymm7, %ymm1, %ymm1
	vmulps	904(%rsp), %ymm6, %ymm7
	vaddps	%ymm8, %ymm1, %ymm1
	vhaddps	%ymm7, %ymm7, %ymm7
	vpermilps	$80, %ymm7, %ymm7
	vblendps	$170, %ymm7, %ymm13, %ymm13
	vmulps	872(%rsp), %ymm6, %ymm7
	vhaddps	%ymm7, %ymm7, %ymm7
	vpermilps	$80, %ymm7, %ymm7
	vblendps	$170, %ymm7, %ymm11, %ymm11
	vmulps	%ymm5, %ymm6, %ymm7
	vhaddps	%ymm7, %ymm7, %ymm7
	vpermilps	$80, %ymm7, %ymm7
	vblendps	$170, %ymm7, %ymm9, %ymm9
	vmulps	-64(%r8), %ymm6, %ymm7
	vmulps	840(%rsp), %ymm6, %ymm6
	vhsubps	%ymm7, %ymm7, %ymm7
	vhaddps	%ymm6, %ymm6, %ymm6
	vpermilps	$80, %ymm7, %ymm7
	vpermilps	$80, %ymm6, %ymm6
	vblendps	$170, %ymm6, %ymm7, %ymm7
	vmulps	-32(%rax), %ymm0, %ymm6
	vhsubps	%ymm6, %ymm6, %ymm6
	vpermilps	$80, %ymm6, %ymm6
	vblendps	$170, %ymm15, %ymm6, %ymm6
	vaddps	%ymm13, %ymm6, %ymm6
	vaddps	%ymm6, %ymm4, %ymm4
	vaddps	328(%rsp), %ymm4, %ymm6
	vmulps	-32(%r10), %ymm0, %ymm4
	vmovaps	%ymm6, 328(%rsp)
	vmulps	776(%rsp), %ymm0, %ymm6
	vhsubps	%ymm4, %ymm4, %ymm4
	vhaddps	%ymm6, %ymm6, %ymm6
	vpermilps	$80, %ymm4, %ymm4
	vpermilps	$80, %ymm6, %ymm6
	vblendps	$170, %ymm6, %ymm4, %ymm4
	vaddps	%ymm11, %ymm4, %ymm4
	vaddps	%ymm4, %ymm3, %ymm3
	vmulps	744(%rsp), %ymm0, %ymm4
	vaddps	360(%rsp), %ymm3, %ymm6
	vmulps	-32(%r9), %ymm0, %ymm3
	vhaddps	%ymm4, %ymm4, %ymm4
	vmovaps	%ymm6, 360(%rsp)
	vhsubps	%ymm3, %ymm3, %ymm3
	vpermilps	$80, %ymm4, %ymm4
	vpermilps	$80, %ymm3, %ymm3
	vblendps	$170, %ymm4, %ymm3, %ymm3
	vaddps	%ymm9, %ymm3, %ymm3
	vaddps	%ymm3, %ymm2, %ymm2
	vaddps	392(%rsp), %ymm2, %ymm6
	vmulps	-32(%r8), %ymm0, %ymm2
	vmulps	712(%rsp), %ymm0, %ymm0
	vmovaps	%ymm6, 392(%rsp)
	vmovups	-64(%rsi), %ymm6
	vhsubps	%ymm2, %ymm2, %ymm2
	vhaddps	%ymm0, %ymm0, %ymm0
	vmulps	-64(%rax), %ymm6, %ymm13
	vpermilps	$80, %ymm2, %ymm2
	vpermilps	$80, %ymm0, %ymm0
	vblendps	$170, %ymm0, %ymm2, %ymm2
	vaddps	%ymm7, %ymm2, %ymm2
	vmovups	-96(%rsi), %ymm7
	vhsubps	%ymm13, %ymm13, %ymm13
	vaddps	%ymm2, %ymm1, %ymm1
	vmulps	-96(%rax), %ymm7, %ymm4
	vmulps	-96(%r10), %ymm7, %ymm3
	vaddps	424(%rsp), %ymm1, %ymm8
	vmovups	-128(%rsi), %ymm1
	vpermilps	$80, %ymm13, %ymm13
	vmulps	-128(%rax), %ymm1, %ymm14
	vmulps	1160(%rsp), %ymm1, %ymm2
	vmulps	-128(%r10), %ymm1, %ymm12
	vmulps	-128(%r9), %ymm1, %ymm10
	vmovaps	%ymm8, 424(%rsp)
	vhsubps	%ymm14, %ymm14, %ymm14
	vhaddps	%ymm2, %ymm2, %ymm2
	vhsubps	%ymm12, %ymm12, %ymm12
	vpermilps	$80, %ymm14, %ymm14
	vpermilps	$80, %ymm2, %ymm2
	vblendps	$170, %ymm2, %ymm14, %ymm14
	vmulps	1128(%rsp), %ymm1, %ymm2
	vpermilps	$80, %ymm12, %ymm12
	vmulps	-128(%r8), %ymm1, %ymm8
	vhsubps	%ymm4, %ymm4, %ymm4
	vhsubps	%ymm10, %ymm10, %ymm10
	vhaddps	%ymm2, %ymm2, %ymm2
	vpermilps	$80, %ymm4, %ymm4
	vhsubps	%ymm8, %ymm8, %ymm8
	vpermilps	$80, %ymm2, %ymm2
	vblendps	$170, %ymm2, %ymm12, %ymm12
	vmulps	1096(%rsp), %ymm1, %ymm2
	vmulps	1064(%rsp), %ymm1, %ymm1
	vpermilps	$80, %ymm8, %ymm8
	vhsubps	%ymm3, %ymm3, %ymm3
	vpermilps	$80, %ymm10, %ymm10
	vhaddps	%ymm2, %ymm2, %ymm2
	vhaddps	%ymm1, %ymm1, %ymm1
	vpermilps	$80, %ymm3, %ymm3
	vpermilps	$80, %ymm2, %ymm2
	vpermilps	$80, %ymm1, %ymm1
	vblendps	$170, %ymm1, %ymm8, %ymm8
	vmulps	1032(%rsp), %ymm7, %ymm1
	vblendps	$170, %ymm2, %ymm10, %ymm10
	vmulps	-96(%r9), %ymm7, %ymm2
	vmulps	-64(%r10), %ymm6, %ymm11
	vmulps	-64(%r9), %ymm6, %ymm9
	vhaddps	%ymm1, %ymm1, %ymm1
	vmovups	-32(%rsi), %ymm0
	vhsubps	%ymm2, %ymm2, %ymm2
	vpermilps	$80, %ymm1, %ymm1
	vblendps	$170, %ymm1, %ymm4, %ymm4
	vmulps	1000(%rsp), %ymm7, %ymm1
	vpermilps	$80, %ymm2, %ymm2
	vhsubps	%ymm11, %ymm11, %ymm11
	vhsubps	%ymm9, %ymm9, %ymm9
	vaddps	%ymm14, %ymm4, %ymm4
	vhaddps	%ymm1, %ymm1, %ymm1
	vpermilps	$80, %ymm11, %ymm11
	vpermilps	$80, %ymm9, %ymm9
	vpermilps	$80, %ymm1, %ymm1
	vblendps	$170, %ymm1, %ymm3, %ymm3
	vmulps	968(%rsp), %ymm7, %ymm1
	vaddps	%ymm12, %ymm3, %ymm3
	vhaddps	%ymm1, %ymm1, %ymm1
	vpermilps	$80, %ymm1, %ymm1
	vblendps	$170, %ymm1, %ymm2, %ymm2
	vmulps	-96(%r8), %ymm7, %ymm1
	vmulps	936(%rsp), %ymm7, %ymm7
	vaddps	%ymm10, %ymm2, %ymm2
	vhsubps	%ymm1, %ymm1, %ymm1
	vhaddps	%ymm7, %ymm7, %ymm7
	vpermilps	$80, %ymm1, %ymm1
	vpermilps	$80, %ymm7, %ymm7
	vblendps	$170, %ymm7, %ymm1, %ymm1
	vmulps	904(%rsp), %ymm6, %ymm7
	vaddps	%ymm8, %ymm1, %ymm1
	vhaddps	%ymm7, %ymm7, %ymm7
	vpermilps	$80, %ymm7, %ymm7
	vblendps	$170, %ymm7, %ymm13, %ymm13
	vmulps	872(%rsp), %ymm6, %ymm7
	vhaddps	%ymm7, %ymm7, %ymm7
	vpermilps	$80, %ymm7, %ymm7
	vblendps	$170, %ymm7, %ymm11, %ymm11
	vmulps	%ymm5, %ymm6, %ymm7
	vhaddps	%ymm7, %ymm7, %ymm7
	vpermilps	$80, %ymm7, %ymm7
	vblendps	$170, %ymm7, %ymm9, %ymm9
	vmulps	-64(%r8), %ymm6, %ymm7
	vmulps	840(%rsp), %ymm6, %ymm6
	vmulps	808(%rsp), %ymm0, %ymm15
	vhsubps	%ymm7, %ymm7, %ymm7
	vhaddps	%ymm6, %ymm6, %ymm6
	vhaddps	%ymm15, %ymm15, %ymm15
	vpermilps	$80, %ymm7, %ymm7
	vpermilps	$80, %ymm6, %ymm6
	vblendps	$170, %ymm6, %ymm7, %ymm7
	vmulps	-32(%rax), %ymm0, %ymm6
	vpermilps	$80, %ymm15, %ymm15
	vhsubps	%ymm6, %ymm6, %ymm6
	vpermilps	$80, %ymm6, %ymm6
	vblendps	$170, %ymm15, %ymm6, %ymm6
	vaddps	%ymm13, %ymm6, %ymm6
	vmovaps	712(%rsp), %ymm15
	vaddps	%ymm6, %ymm4, %ymm4
	vaddps	456(%rsp), %ymm4, %ymm6
	vmulps	-32(%r10), %ymm0, %ymm4
	vmovaps	%ymm6, 456(%rsp)
	vmulps	776(%rsp), %ymm0, %ymm6
	vhsubps	%ymm4, %ymm4, %ymm4
	vhaddps	%ymm6, %ymm6, %ymm6
	vpermilps	$80, %ymm4, %ymm4
	vpermilps	$80, %ymm6, %ymm6
	vblendps	$170, %ymm6, %ymm4, %ymm4
	vaddps	%ymm11, %ymm4, %ymm4
	vaddps	%ymm4, %ymm3, %ymm3
	vmulps	744(%rsp), %ymm0, %ymm4
	vaddps	488(%rsp), %ymm3, %ymm6
	vmulps	-32(%r9), %ymm0, %ymm3
	vhaddps	%ymm4, %ymm4, %ymm4
	vmovaps	%ymm6, 488(%rsp)
	vhsubps	%ymm3, %ymm3, %ymm3
	vpermilps	$80, %ymm4, %ymm4
	vpermilps	$80, %ymm3, %ymm3
	vblendps	$170, %ymm4, %ymm3, %ymm3
	vaddps	%ymm9, %ymm3, %ymm3
	vmovups	-64(%rdi), %ymm4
	vaddps	%ymm3, %ymm2, %ymm2
	vmovups	-32(%rdi), %ymm3
	vmulps	%ymm5, %ymm4, %ymm5
	vaddps	520(%rsp), %ymm2, %ymm6
	vmulps	-32(%r8), %ymm0, %ymm2
	vmulps	%ymm15, %ymm0, %ymm0
	vmovaps	%ymm6, 520(%rsp)
	vhaddps	%ymm5, %ymm5, %ymm5
	vhsubps	%ymm2, %ymm2, %ymm2
	vhaddps	%ymm0, %ymm0, %ymm0
	vpermilps	$80, %ymm5, %ymm5
	vpermilps	$80, %ymm2, %ymm2
	vpermilps	$80, %ymm0, %ymm0
	vblendps	$170, %ymm0, %ymm2, %ymm2
	vaddps	%ymm7, %ymm2, %ymm2
	vmovups	-128(%rdi), %ymm0
	vaddps	%ymm2, %ymm1, %ymm1
	vmulps	1160(%rsp), %ymm0, %ymm2
	vmulps	-128(%r10), %ymm0, %ymm7
	vaddps	552(%rsp), %ymm1, %ymm8
	vmulps	-128(%r9), %ymm0, %ymm12
	vmulps	-128(%r8), %ymm0, %ymm6
	vmovaps	%ymm8, 552(%rsp)
	vmulps	-128(%rax), %ymm0, %ymm8
	vhaddps	%ymm2, %ymm2, %ymm2
	vhsubps	%ymm7, %ymm7, %ymm7
	vhsubps	%ymm6, %ymm6, %ymm6
	vpermilps	$80, %ymm2, %ymm2
	vhsubps	%ymm8, %ymm8, %ymm8
	vpermilps	$80, %ymm7, %ymm7
	vmovups	-96(%rdi), %ymm1
	vpermilps	$80, %ymm8, %ymm8
	vblendps	$170, %ymm2, %ymm8, %ymm8
	vmulps	1128(%rsp), %ymm0, %ymm2
	vpermilps	$80, %ymm6, %ymm6
	vmulps	-96(%rax), %ymm1, %ymm11
	vmulps	-96(%r10), %ymm1, %ymm10
	vhsubps	%ymm12, %ymm12, %ymm12
	vhaddps	%ymm2, %ymm2, %ymm2
	vhsubps	%ymm11, %ymm11, %ymm11
	vpermilps	$80, %ymm2, %ymm2
	vblendps	$170, %ymm2, %ymm7, %ymm7
	vmulps	1096(%rsp), %ymm0, %ymm2
	vmulps	1064(%rsp), %ymm0, %ymm0
	vpermilps	$80, %ymm11, %ymm11
	vhsubps	%ymm10, %ymm10, %ymm10
	vpermilps	$80, %ymm12, %ymm12
	vhaddps	%ymm2, %ymm2, %ymm2
	vhaddps	%ymm0, %ymm0, %ymm0
	vpermilps	$80, %ymm10, %ymm10
	vpermilps	$80, %ymm2, %ymm2
	vpermilps	$80, %ymm0, %ymm0
	vblendps	$170, %ymm0, %ymm6, %ymm6
	vmulps	1032(%rsp), %ymm1, %ymm0
	vblendps	$170, %ymm2, %ymm12, %ymm12
	vhaddps	%ymm0, %ymm0, %ymm0
	vpermilps	$80, %ymm0, %ymm0
	vblendps	$170, %ymm0, %ymm11, %ymm11
	vmulps	1000(%rsp), %ymm1, %ymm0
	vmulps	-96(%r8), %ymm1, %ymm9
	vmulps	968(%rsp), %ymm1, %ymm2
	vmulps	872(%rsp), %ymm4, %ymm14
	vaddps	%ymm8, %ymm11, %ymm11
	vhaddps	%ymm0, %ymm0, %ymm0
	vhsubps	%ymm9, %ymm9, %ymm9
	vhaddps	%ymm2, %ymm2, %ymm2
	vpermilps	$80, %ymm0, %ymm0
	vblendps	$170, %ymm0, %ymm10, %ymm10
	vmulps	-96(%r9), %ymm1, %ymm0
	vmulps	936(%rsp), %ymm1, %ymm1
	vpermilps	$80, %ymm2, %ymm2
	vpermilps	$80, %ymm9, %ymm9
	vhaddps	%ymm14, %ymm14, %ymm14
	vhsubps	%ymm0, %ymm0, %ymm0
	vhaddps	%ymm1, %ymm1, %ymm1
	vpermilps	$80, %ymm14, %ymm14
	vpermilps	$80, %ymm0, %ymm0
	vpermilps	$80, %ymm1, %ymm1
	vblendps	$170, %ymm2, %ymm0, %ymm0
	vblendps	$170, %ymm1, %ymm9, %ymm9
	vmulps	-64(%rax), %ymm4, %ymm2
	vmulps	904(%rsp), %ymm4, %ymm1
	vaddps	%ymm12, %ymm0, %ymm0
	vaddps	%ymm7, %ymm10, %ymm10
	vaddps	%ymm6, %ymm9, %ymm9
	vhsubps	%ymm2, %ymm2, %ymm2
	vhaddps	%ymm1, %ymm1, %ymm1
	vpermilps	$80, %ymm2, %ymm2
	vpermilps	$80, %ymm1, %ymm1
	vblendps	$170, %ymm1, %ymm2, %ymm2
	vmulps	-64(%r10), %ymm4, %ymm1
	vhsubps	%ymm1, %ymm1, %ymm1
	vpermilps	$80, %ymm1, %ymm1
	vblendps	$170, %ymm14, %ymm1, %ymm13
	vmulps	-64(%r9), %ymm4, %ymm1
	vhsubps	%ymm1, %ymm1, %ymm1
	vpermilps	$80, %ymm1, %ymm1
	vblendps	$170, %ymm5, %ymm1, %ymm5
	vmulps	-64(%r8), %ymm4, %ymm1
	vmulps	840(%rsp), %ymm4, %ymm4
	vhsubps	%ymm1, %ymm1, %ymm1
	vhaddps	%ymm4, %ymm4, %ymm4
	vpermilps	$80, %ymm1, %ymm1
	vpermilps	$80, %ymm4, %ymm4
	vblendps	$170, %ymm4, %ymm1, %ymm14
	vmulps	-32(%rax), %ymm3, %ymm4
	vmulps	808(%rsp), %ymm3, %ymm1
	vhsubps	%ymm4, %ymm4, %ymm4
	vhaddps	%ymm1, %ymm1, %ymm1
	vpermilps	$80, %ymm4, %ymm4
	vpermilps	$80, %ymm1, %ymm1
	vblendps	$170, %ymm1, %ymm4, %ymm4
	vaddps	%ymm4, %ymm2, %ymm2
	vmulps	-32(%r10), %ymm3, %ymm1
	vaddps	%ymm2, %ymm11, %ymm11
	vaddps	680(%rsp), %ymm11, %ymm2
	vhsubps	%ymm1, %ymm1, %ymm1
	vmovaps	%ymm2, 680(%rsp)
	vmulps	776(%rsp), %ymm3, %ymm2
	vpermilps	$80, %ymm1, %ymm1
	vhaddps	%ymm2, %ymm2, %ymm2
	vpermilps	$80, %ymm2, %ymm2
	vblendps	$170, %ymm2, %ymm1, %ymm1
	vaddps	%ymm1, %ymm13, %ymm13
	vmulps	744(%rsp), %ymm3, %ymm2
	vmulps	-32(%r9), %ymm3, %ymm1
	vaddps	%ymm13, %ymm10, %ymm10
	vhaddps	%ymm2, %ymm2, %ymm2
	vhsubps	%ymm1, %ymm1, %ymm1
	vaddps	648(%rsp), %ymm10, %ymm7
	vpermilps	$80, %ymm2, %ymm2
	vpermilps	$80, %ymm1, %ymm1
	vblendps	$170, %ymm2, %ymm1, %ymm1
	vaddps	%ymm1, %ymm5, %ymm5
	vmovaps	%ymm7, 648(%rsp)
	vaddps	%ymm5, %ymm0, %ymm0
	vaddps	616(%rsp), %ymm0, %ymm5
	vmulps	-32(%r8), %ymm3, %ymm0
	vmulps	%ymm15, %ymm3, %ymm3
	vmovaps	%ymm5, 616(%rsp)
	vhsubps	%ymm0, %ymm0, %ymm0
	vhaddps	%ymm3, %ymm3, %ymm3
	vpermilps	$80, %ymm0, %ymm0
	vpermilps	$80, %ymm3, %ymm3
	vblendps	$170, %ymm3, %ymm0, %ymm0
	vaddps	%ymm0, %ymm14, %ymm14
	vaddps	%ymm14, %ymm9, %ymm9
	vaddps	584(%rsp), %ymm9, %ymm5
	vmovaps	%ymm5, 584(%rsp)
	cmpq	%rax, %r11
	jne	.L94
	vmovaps	200(%rsp), %xmm0
	movq	136(%rsp), %r11
	vshufps	$255, %xmm0, %xmm0, %xmm2
	vshufps	$85, %xmm0, %xmm0, %xmm1
	vaddss	%xmm1, %xmm2, %xmm5
	vunpckhps	%xmm0, %xmm0, %xmm1
	vmovss	%xmm5, 1160(%rsp)
	vaddss	%xmm0, %xmm1, %xmm5
	vmovaps	232(%rsp), %xmm0
	vmovss	%xmm5, 1128(%rsp)
	vshufps	$255, %xmm0, %xmm0, %xmm2
	vshufps	$85, %xmm0, %xmm0, %xmm1
	vaddss	%xmm1, %xmm2, %xmm5
	vunpckhps	%xmm0, %xmm0, %xmm1
	vmovss	%xmm5, 1096(%rsp)
	vaddss	%xmm0, %xmm1, %xmm5
	vmovaps	264(%rsp), %xmm0
	vmovss	%xmm5, 1064(%rsp)
	vshufps	$255, %xmm0, %xmm0, %xmm2
	vshufps	$85, %xmm0, %xmm0, %xmm1
	vaddss	%xmm1, %xmm2, %xmm5
	vmovaps	%xmm0, %xmm1
	vunpckhps	%xmm0, %xmm0, %xmm0
	vmovss	%xmm5, 1032(%rsp)
	vaddss	%xmm0, %xmm1, %xmm5
	vmovaps	296(%rsp), %xmm0
	vmovss	%xmm5, 1000(%rsp)
	vshufps	$255, %xmm0, %xmm0, %xmm2
	vshufps	$85, %xmm0, %xmm0, %xmm1
	vaddss	%xmm1, %xmm2, %xmm5
	vunpckhps	%xmm0, %xmm0, %xmm1
	vmovss	%xmm5, 968(%rsp)
	vaddss	%xmm0, %xmm1, %xmm5
	vmovaps	328(%rsp), %xmm0
	vmovss	%xmm5, 936(%rsp)
	vshufps	$255, %xmm0, %xmm0, %xmm2
	vshufps	$85, %xmm0, %xmm0, %xmm1
	vaddss	%xmm1, %xmm2, %xmm5
	vunpckhps	%xmm0, %xmm0, %xmm1
	vmovss	%xmm5, 904(%rsp)
	vaddss	%xmm0, %xmm1, %xmm5
	vmovaps	360(%rsp), %xmm0
	vmovss	%xmm5, 872(%rsp)
	vshufps	$255, %xmm0, %xmm0, %xmm2
	vshufps	$85, %xmm0, %xmm0, %xmm1
	vaddss	%xmm1, %xmm2, %xmm5
	vunpckhps	%xmm0, %xmm0, %xmm1
	vmovss	%xmm5, 840(%rsp)
	vaddss	%xmm0, %xmm1, %xmm5
	vmovaps	392(%rsp), %xmm0
	vmovss	%xmm5, 808(%rsp)
	vshufps	$85, %xmm0, %xmm0, %xmm2
	vshufps	$255, %xmm0, %xmm0, %xmm1
	vaddss	%xmm1, %xmm2, %xmm5
	vunpckhps	%xmm0, %xmm0, %xmm1
	vmovss	%xmm5, 776(%rsp)
	vaddss	%xmm0, %xmm1, %xmm5
	vmovaps	424(%rsp), %xmm0
	vmovss	%xmm5, 744(%rsp)
	vshufps	$255, %xmm0, %xmm0, %xmm2
	vshufps	$85, %xmm0, %xmm0, %xmm1
	vaddss	%xmm1, %xmm2, %xmm5
	vunpckhps	%xmm0, %xmm0, %xmm1
	vmovss	%xmm5, 712(%rsp)
	vaddss	%xmm0, %xmm1, %xmm5
	vmovaps	456(%rsp), %xmm0
	vmovss	%xmm5, 424(%rsp)
	vshufps	$255, %xmm0, %xmm0, %xmm2
	vshufps	$85, %xmm0, %xmm0, %xmm1
	vaddss	%xmm1, %xmm2, %xmm5
	vunpckhps	%xmm0, %xmm0, %xmm1
	vmovss	%xmm5, 456(%rsp)
	vaddss	%xmm0, %xmm1, %xmm5
	vmovaps	488(%rsp), %xmm0
	vmovss	%xmm5, 392(%rsp)
	vshufps	$255, %xmm0, %xmm0, %xmm2
	vshufps	$85, %xmm0, %xmm0, %xmm1
	vaddss	%xmm1, %xmm2, %xmm5
	vmovaps	%xmm0, %xmm1
	vunpckhps	%xmm0, %xmm0, %xmm0
	vmovss	%xmm5, 488(%rsp)
	vaddss	%xmm0, %xmm1, %xmm5
	vmovaps	520(%rsp), %xmm0
	vmovss	%xmm5, 360(%rsp)
	vshufps	$255, %xmm0, %xmm0, %xmm2
	vshufps	$85, %xmm0, %xmm0, %xmm1
	vaddss	%xmm1, %xmm2, %xmm5
	vunpckhps	%xmm0, %xmm0, %xmm1
	vmovss	%xmm5, 520(%rsp)
	vaddss	%xmm0, %xmm1, %xmm5
	vmovaps	552(%rsp), %xmm0
	vmovss	%xmm5, 328(%rsp)
	vshufps	$255, %xmm0, %xmm0, %xmm2
	vshufps	$85, %xmm0, %xmm0, %xmm1
	vaddss	%xmm1, %xmm2, %xmm5
	vunpckhps	%xmm0, %xmm0, %xmm1
	vmovss	%xmm5, 552(%rsp)
	vaddss	%xmm0, %xmm1, %xmm5
	vmovaps	680(%rsp), %xmm0
	vmovss	%xmm5, 296(%rsp)
	vshufps	$255, %xmm0, %xmm0, %xmm2
	vshufps	$85, %xmm0, %xmm0, %xmm1
	vaddss	%xmm1, %xmm2, %xmm5
	vunpckhps	%xmm0, %xmm0, %xmm1
	vshufps	$85, %xmm7, %xmm7, %xmm2
	vmovss	%xmm5, 680(%rsp)
	vaddss	%xmm0, %xmm1, %xmm5
	vshufps	$255, %xmm7, %xmm7, %xmm1
	vmovaps	616(%rsp), %xmm0
	vmovss	%xmm5, 264(%rsp)
	vaddss	%xmm1, %xmm2, %xmm5
	vunpckhps	%xmm7, %xmm7, %xmm1
	vshufps	$255, %xmm0, %xmm0, %xmm2
	vmovss	%xmm5, 648(%rsp)
	vaddss	%xmm7, %xmm1, %xmm5
	vshufps	$85, %xmm0, %xmm0, %xmm1
	vmovss	%xmm5, 232(%rsp)
	vaddss	%xmm1, %xmm2, %xmm5
	vunpckhps	%xmm0, %xmm0, %xmm1
	vmovss	%xmm5, 616(%rsp)
	vaddss	%xmm0, %xmm1, %xmm5
	vmovaps	584(%rsp), %xmm0
	vmovd	%xmm5, %r10d
	vshufps	$85, %xmm0, %xmm0, %xmm1
	vshufps	$255, %xmm0, %xmm0, %xmm15
	vaddss	%xmm1, %xmm15, %xmm5
	vunpckhps	%xmm0, %xmm0, %xmm1
	vmovd	%xmm5, %r9d
	vaddss	%xmm0, %xmm1, %xmm5
	vmovd	%xmm5, %r8d
.L101:
	movl	192(%rsp), %esi
	cmpl	%esi, 196(%rsp)
	jle	.L99
	movq	184(%rsp), %rcx
	movslq	168(%rsp), %rdx
	movslq	192(%rsp), %rax
	leaq	(%rcx,%rdx,8), %rdi
	movslq	172(%rsp), %rdx
	leaq	(%rcx,%rdx,8), %rsi
	movslq	176(%rsp), %rdx
	leaq	(%rcx,%rdx,8), %rdx
	movq	%rdx, 584(%rsp)
	movslq	180(%rsp), %rdx
	leaq	(%rcx,%rdx,8), %rdx
	movq	584(%rsp), %rcx
	movl	%r10d, 584(%rsp)
	movq	144(%rsp), %r10
	.p2align 4,,10
	.p2align 3
.L98:
	vmovss	4(%r13,%rax,8), %xmm6
	vmovss	(%rdi,%rax,8), %xmm13
	vmovss	0(%r13,%rax,8), %xmm7
	vmulss	%xmm6, %xmm13, %xmm14
	vmovss	4(%rdi,%rax,8), %xmm3
	vmovss	(%rsi,%rax,8), %xmm12
	vmovss	(%r10,%rax,8), %xmm8
	vmovss	(%r15,%rax,8), %xmm5
	vfmadd231ss	%xmm3, %xmm7, %xmm14
	vmovss	4(%r15,%rax,8), %xmm4
	vmovss	4(%r10,%rax,8), %xmm9
	vmovss	4(%rsi,%rax,8), %xmm2
	vmovss	(%rcx,%rax,8), %xmm11
	vaddss	4(%rbx), %xmm14, %xmm14
	vmovss	4(%rcx,%rax,8), %xmm1
	vmovss	(%rdx,%rax,8), %xmm10
	vmovss	4(%rdx,%rax,8), %xmm0
	vmovss	%xmm14, 4(%rbx)
	vmulss	%xmm6, %xmm12, %xmm14
	vmovaps	%xmm13, %xmm15
	vfmadd213ss	(%rbx), %xmm7, %xmm15
	incq	%rax
	vfmadd231ss	%xmm7, %xmm2, %xmm14
	vfnmadd231ss	%xmm3, %xmm6, %xmm15
	vaddss	12(%rbx), %xmm14, %xmm14
	vmovss	%xmm15, (%rbx)
	vmovss	%xmm14, 12(%rbx)
	vmulss	%xmm11, %xmm6, %xmm14
	vmovaps	%xmm12, %xmm15
	vfmadd213ss	8(%rbx), %xmm7, %xmm15
	vfmadd231ss	%xmm7, %xmm1, %xmm14
	vfnmadd231ss	%xmm6, %xmm2, %xmm15
	vaddss	20(%rbx), %xmm14, %xmm14
	vmovss	%xmm15, 8(%rbx)
	vmovss	%xmm14, 20(%rbx)
	vmulss	%xmm6, %xmm10, %xmm14
	vmovaps	%xmm7, %xmm15
	vfmadd213ss	16(%rbx), %xmm11, %xmm15
	vfmadd231ss	%xmm0, %xmm7, %xmm14
	vfmadd213ss	24(%rbx), %xmm10, %xmm7
	vfnmadd231ss	%xmm6, %xmm1, %xmm15
	vaddss	28(%rbx), %xmm14, %xmm14
	vfnmadd132ss	%xmm0, %xmm7, %xmm6
	vmovss	%xmm15, 16(%rbx)
	vmovss	%xmm14, 28(%rbx)
	vmovaps	%xmm13, %xmm7
	vmovss	%xmm6, 24(%rbx)
	vfmadd213ss	(%r11), %xmm5, %xmm7
	vmulss	%xmm4, %xmm13, %xmm6
	vfnmadd231ss	%xmm3, %xmm4, %xmm7
	vfmadd231ss	%xmm5, %xmm3, %xmm6
	vmovss	%xmm7, (%r11)
	vaddss	4(%r11), %xmm6, %xmm6
	vmovaps	%xmm12, %xmm7
	vfmadd213ss	8(%r11), %xmm5, %xmm7
	vmovss	%xmm6, 4(%r11)
	vmulss	%xmm4, %xmm12, %xmm6
	vfnmadd231ss	%xmm4, %xmm2, %xmm7
	vfmadd231ss	%xmm5, %xmm2, %xmm6
	vmovss	%xmm7, 8(%r11)
	vmovaps	%xmm11, %xmm7
	vaddss	12(%r11), %xmm6, %xmm6
	vfmadd213ss	16(%r11), %xmm5, %xmm7
	vmovss	%xmm6, 12(%r11)
	vmulss	%xmm11, %xmm4, %xmm6
	vfnmadd231ss	%xmm4, %xmm1, %xmm7
	vfmadd231ss	%xmm5, %xmm1, %xmm6
	vmovss	%xmm7, 16(%r11)
	vaddss	20(%r11), %xmm6, %xmm6
	vmovss	%xmm6, 20(%r11)
	vmulss	%xmm4, %xmm10, %xmm6
	vfmadd231ss	%xmm5, %xmm0, %xmm6
	vfmadd213ss	24(%r11), %xmm10, %xmm5
	vaddss	28(%r11), %xmm6, %xmm6
	vfnmadd132ss	%xmm0, %xmm5, %xmm4
	vmovss	%xmm6, 28(%r11)
	vmovss	%xmm4, 24(%r11)
	vmulss	%xmm9, %xmm13, %xmm4
	vfmadd231ss	%xmm3, %xmm8, %xmm4
	vmulss	%xmm9, %xmm3, %xmm3
	vfmsub231ss	%xmm8, %xmm13, %xmm3
	vaddss	(%r12), %xmm3, %xmm5
	vmovss	%xmm5, (%r12)
	vaddss	4(%r12), %xmm4, %xmm5
	vmovss	%xmm5, 4(%r12)
	vmulss	%xmm9, %xmm12, %xmm5
	vfmadd231ss	%xmm8, %xmm2, %xmm5
	vmulss	%xmm9, %xmm2, %xmm2
	vfmsub231ss	%xmm8, %xmm12, %xmm2
	vaddss	8(%r12), %xmm2, %xmm6
	vmovss	%xmm6, 8(%r12)
	vaddss	12(%r12), %xmm5, %xmm6
	vmovss	%xmm6, 12(%r12)
	vmulss	%xmm9, %xmm11, %xmm6
	vfmadd231ss	%xmm8, %xmm1, %xmm6
	vmulss	%xmm9, %xmm1, %xmm1
	vfmsub231ss	%xmm11, %xmm8, %xmm1
	vaddss	16(%r12), %xmm1, %xmm7
	vmovss	%xmm7, 16(%r12)
	vaddss	20(%r12), %xmm6, %xmm7
	vmovss	%xmm7, 20(%r12)
	vmulss	%xmm9, %xmm10, %xmm7
	vfmadd231ss	%xmm0, %xmm8, %xmm7
	vmulss	%xmm9, %xmm0, %xmm0
	vfmsub231ss	%xmm8, %xmm10, %xmm0
	vaddss	24(%r12), %xmm0, %xmm8
	vmovss	%xmm8, 24(%r12)
	vaddss	28(%r12), %xmm7, %xmm8
	vmovss	%xmm8, 28(%r12)
	vaddss	(%r14), %xmm3, %xmm3
	vmovss	%xmm3, (%r14)
	vaddss	4(%r14), %xmm4, %xmm4
	vaddss	8(%r14), %xmm2, %xmm2
	vaddss	12(%r14), %xmm5, %xmm5
	vaddss	16(%r14), %xmm1, %xmm1
	vaddss	20(%r14), %xmm6, %xmm6
	vaddss	24(%r14), %xmm0, %xmm0
	vaddss	28(%r14), %xmm7, %xmm7
	vmovss	%xmm4, 4(%r14)
	vmovss	%xmm2, 8(%r14)
	vmovss	%xmm5, 12(%r14)
	vmovss	%xmm1, 16(%r14)
	vmovss	%xmm6, 20(%r14)
	vmovss	%xmm0, 24(%r14)
	vmovss	%xmm7, 28(%r14)
	cmpl	%eax, 196(%rsp)
	jg	.L98
	movl	584(%rsp), %r10d
.L99:
	vmovss	1128(%rsp), %xmm5
	addq	$32, %rbx
	vaddss	-32(%rbx), %xmm5, %xmm0
	vmovss	1160(%rsp), %xmm5
	addq	$32, %r11
	vmovss	%xmm0, -32(%rbx)
	vaddss	-28(%rbx), %xmm5, %xmm0
	vmovss	1064(%rsp), %xmm5
	addq	$32, %r12
	vmovss	%xmm0, -28(%rbx)
	vaddss	-24(%rbx), %xmm5, %xmm0
	vmovss	1096(%rsp), %xmm5
	addq	$32, %r14
	vmovss	%xmm0, -24(%rbx)
	vaddss	-20(%rbx), %xmm5, %xmm0
	vmovss	1000(%rsp), %xmm5
	vmovss	%xmm0, -20(%rbx)
	vaddss	-16(%rbx), %xmm5, %xmm0
	vmovss	1032(%rsp), %xmm5
	vmovss	%xmm0, -16(%rbx)
	vaddss	-12(%rbx), %xmm5, %xmm0
	vmovss	936(%rsp), %xmm5
	vmovss	%xmm0, -12(%rbx)
	vaddss	-8(%rbx), %xmm5, %xmm0
	vmovss	968(%rsp), %xmm5
	vmovss	%xmm0, -8(%rbx)
	vaddss	-4(%rbx), %xmm5, %xmm0
	vmovss	872(%rsp), %xmm5
	vmovss	%xmm0, -4(%rbx)
	vaddss	-32(%r11), %xmm5, %xmm0
	vmovss	904(%rsp), %xmm5
	vmovss	%xmm0, -32(%r11)
	vaddss	-28(%r11), %xmm5, %xmm0
	vmovss	808(%rsp), %xmm5
	vmovss	%xmm0, -28(%r11)
	vaddss	-24(%r11), %xmm5, %xmm0
	vmovss	%xmm0, -24(%r11)
	vmovss	840(%rsp), %xmm5
	vaddss	-20(%r11), %xmm5, %xmm0
	vmovss	744(%rsp), %xmm5
	vmovss	%xmm0, -20(%r11)
	vaddss	-16(%r11), %xmm5, %xmm0
	vmovss	776(%rsp), %xmm5
	vmovss	%xmm0, -16(%r11)
	vaddss	-12(%r11), %xmm5, %xmm0
	vmovss	424(%rsp), %xmm5
	vmovss	%xmm0, -12(%r11)
	vaddss	-8(%r11), %xmm5, %xmm0
	vmovss	712(%rsp), %xmm5
	vmovss	%xmm0, -8(%r11)
	vaddss	-4(%r11), %xmm5, %xmm0
	vmovss	392(%rsp), %xmm5
	vmovss	%xmm0, -4(%r11)
	vaddss	-32(%r12), %xmm5, %xmm0
	vmovss	456(%rsp), %xmm5
	vmovss	%xmm0, -32(%r12)
	vaddss	-28(%r12), %xmm5, %xmm0
	vmovss	360(%rsp), %xmm5
	vmovss	%xmm0, -28(%r12)
	vaddss	-24(%r12), %xmm5, %xmm0
	vmovss	488(%rsp), %xmm5
	vmovss	%xmm0, -24(%r12)
	vaddss	-20(%r12), %xmm5, %xmm0
	vmovss	328(%rsp), %xmm5
	vmovss	%xmm0, -20(%r12)
	vaddss	-16(%r12), %xmm5, %xmm0
	vmovss	520(%rsp), %xmm5
	vmovss	%xmm0, -16(%r12)
	vaddss	-12(%r12), %xmm5, %xmm0
	vmovss	%xmm0, -12(%r12)
	vmovss	296(%rsp), %xmm5
	movl	152(%rsp), %eax
	vaddss	-8(%r12), %xmm5, %xmm0
	vmovss	552(%rsp), %xmm5
	addl	%eax, 168(%rsp)
	vmovss	%xmm0, -8(%r12)
	vaddss	-4(%r12), %xmm5, %xmm0
	vmovss	264(%rsp), %xmm5
	addl	%eax, 172(%rsp)
	vmovss	%xmm0, -4(%r12)
	vaddss	-32(%r14), %xmm5, %xmm0
	vmovss	680(%rsp), %xmm5
	vmovss	%xmm0, -32(%r14)
	vaddss	-28(%r14), %xmm5, %xmm0
	vmovss	232(%rsp), %xmm5
	vmovss	%xmm0, -28(%r14)
	vaddss	-24(%r14), %xmm5, %xmm0
	vmovss	648(%rsp), %xmm5
	vmovss	%xmm0, -24(%r14)
	vaddss	-20(%r14), %xmm5, %xmm0
	vmovd	%r10d, %xmm5
	vmovss	%xmm0, -20(%r14)
	vaddss	-16(%r14), %xmm5, %xmm0
	vmovss	616(%rsp), %xmm5
	vmovss	%xmm0, -16(%r14)
	vaddss	-12(%r14), %xmm5, %xmm0
	vmovd	%r8d, %xmm5
	vmovss	%xmm0, -12(%r14)
	vaddss	-8(%r14), %xmm5, %xmm0
	vmovd	%r9d, %xmm5
	vaddss	-4(%r14), %xmm5, %xmm15
	vmovss	%xmm0, -8(%r14)
	vmovss	%xmm15, -4(%r14)
	addl	%eax, 176(%rsp)
	addl	%eax, 180(%rsp)
	cmpq	%rbx, 128(%rsp)
	jne	.L96
.L97:
	movl	44(%rsp), %edi
	cmpl	%edi, 40(%rsp)
	jle	.L102
	movq	-16(%rsp), %rsi
	movslq	64(%rsp), %rax
	movq	56(%rsp), %rdi
	addq	%rsi, %rax
	leaq	(%rdi,%rax,8), %r15
	movslq	68(%rsp), %rax
	movq	48(%rsp), %r11
	leaq	(%rax,%rsi), %rdx
	leaq	(%rdi,%rdx,8), %r10
	addq	-24(%rsp), %rax
	movslq	72(%rsp), %rdx
	leaq	8(%rdi,%rax,8), %rax
	addq	%rsi, %rdx
	movq	%rax, 904(%rsp)
	movslq	116(%rsp), %rax
	leaq	(%rdi,%rdx,8), %r13
	movslq	76(%rsp), %rdx
	movq	%rax, 936(%rsp)
	leaq	(%r11,%rax,8), %r8
	movslq	156(%rsp), %rax
	addq	%rsi, %rdx
	leaq	(%rdi,%rdx,8), %r12
	movq	%rax, 968(%rsp)
	leaq	(%r11,%rax,8), %rdi
	movslq	160(%rsp), %rax
	movl	-8(%rsp), %r9d
	movq	%rax, 1000(%rsp)
	leaq	(%r11,%rax,8), %rsi
	movslq	164(%rsp), %rax
	movq	%r13, %r14
	leaq	(%r11,%rax,8), %rcx
	movq	%rax, 1032(%rsp)
	movq	%rcx, 1064(%rsp)
	movq	%r15, %r13
	movq	%r12, %r15
	.p2align 4,,10
	.p2align 3
.L103:
	movl	196(%rsp), %edx
	testl	%edx, %edx
	jle	.L138
	cmpl	$6, 112(%rsp)
	jbe	.L123
	movq	184(%rsp), %rdx
	vxorps	%xmm8, %xmm8, %xmm8
	movslq	%r9d, %rax
	movq	88(%rsp), %rbx
	movq	1064(%rsp), %rcx
	leaq	(%rdx,%rax,8), %rdx
	vmovaps	%ymm8, %ymm5
	xorl	%eax, %eax
	vmovaps	%ymm8, %ymm10
	vmovaps	%ymm8, %ymm9
	vmovaps	%ymm8, %ymm7
	vmovaps	%ymm8, %ymm6
	vmovaps	%ymm8, %ymm4
	vmovaps	%ymm8, %ymm3
	.p2align 4,,10
	.p2align 3
.L105:
	vmovups	32(%rdx,%rax), %ymm12
	vmovups	(%rdx,%rax), %ymm2
	vmovups	32(%r8,%rax), %ymm14
	vshufps	$136, %ymm12, %ymm2, %ymm11
	vperm2f128	$3, %ymm11, %ymm11, %ymm1
	vshufps	$221, %ymm12, %ymm2, %ymm2
	vshufps	$68, %ymm1, %ymm11, %ymm0
	vshufps	$238, %ymm1, %ymm11, %ymm1
	vperm2f128	$3, %ymm2, %ymm2, %ymm11
	vinsertf128	$1, %xmm1, %ymm0, %ymm0
	vshufps	$68, %ymm11, %ymm2, %ymm1
	vshufps	$238, %ymm11, %ymm2, %ymm11
	vmovups	(%r8,%rax), %ymm2
	vinsertf128	$1, %xmm11, %ymm1, %ymm1
	vshufps	$136, %ymm14, %ymm2, %ymm13
	vperm2f128	$3, %ymm13, %ymm13, %ymm12
	vshufps	$221, %ymm14, %ymm2, %ymm2
	vshufps	$68, %ymm12, %ymm13, %ymm11
	vshufps	$238, %ymm12, %ymm13, %ymm12
	vperm2f128	$3, %ymm2, %ymm2, %ymm13
	vinsertf128	$1, %xmm12, %ymm11, %ymm11
	vshufps	$68, %ymm13, %ymm2, %ymm12
	vshufps	$238, %ymm13, %ymm2, %ymm13
	vinsertf128	$1, %xmm13, %ymm12, %ymm2
	vmulps	%ymm0, %ymm2, %ymm12
	vmulps	%ymm1, %ymm2, %ymm2
	vmovups	32(%rdi,%rax), %ymm14
	vfmadd231ps	%ymm1, %ymm11, %ymm12
	vfmsub132ps	%ymm0, %ymm2, %ymm11
	vmovups	(%rdi,%rax), %ymm2
	vshufps	$136, %ymm14, %ymm2, %ymm13
	vaddps	%ymm12, %ymm4, %ymm4
	vperm2f128	$3, %ymm13, %ymm13, %ymm12
	vshufps	$221, %ymm14, %ymm2, %ymm2
	vaddps	%ymm11, %ymm3, %ymm3
	vshufps	$68, %ymm12, %ymm13, %ymm11
	vshufps	$238, %ymm12, %ymm13, %ymm12
	vperm2f128	$3, %ymm2, %ymm2, %ymm13
	vinsertf128	$1, %xmm12, %ymm11, %ymm11
	vshufps	$68, %ymm13, %ymm2, %ymm12
	vshufps	$238, %ymm13, %ymm2, %ymm13
	vinsertf128	$1, %xmm13, %ymm12, %ymm2
	vmulps	%ymm0, %ymm2, %ymm12
	vmulps	%ymm1, %ymm2, %ymm2
	vmovups	32(%rsi,%rax), %ymm14
	vfmadd231ps	%ymm1, %ymm11, %ymm12
	vfmsub132ps	%ymm0, %ymm2, %ymm11
	vmovups	(%rsi,%rax), %ymm2
	vshufps	$136, %ymm14, %ymm2, %ymm13
	vaddps	%ymm12, %ymm6, %ymm6
	vperm2f128	$3, %ymm13, %ymm13, %ymm12
	vshufps	$221, %ymm14, %ymm2, %ymm2
	vaddps	%ymm11, %ymm5, %ymm5
	vshufps	$68, %ymm12, %ymm13, %ymm11
	vshufps	$238, %ymm12, %ymm13, %ymm12
	vperm2f128	$3, %ymm2, %ymm2, %ymm13
	vinsertf128	$1, %xmm12, %ymm11, %ymm11
	vshufps	$68, %ymm13, %ymm2, %ymm12
	vshufps	$238, %ymm13, %ymm2, %ymm13
	vinsertf128	$1, %xmm13, %ymm12, %ymm2
	vmulps	%ymm0, %ymm2, %ymm12
	vmulps	%ymm1, %ymm2, %ymm2
	vmovups	32(%rcx,%rax), %ymm14
	vfmadd231ps	%ymm1, %ymm11, %ymm12
	vfmsub132ps	%ymm0, %ymm2, %ymm11
	vmovups	(%rcx,%rax), %ymm2
	addq	$64, %rax
	vshufps	$136, %ymm14, %ymm2, %ymm13
	vaddps	%ymm12, %ymm8, %ymm8
	vperm2f128	$3, %ymm13, %ymm13, %ymm12
	vshufps	$221, %ymm14, %ymm2, %ymm2
	vaddps	%ymm11, %ymm7, %ymm7
	vshufps	$68, %ymm12, %ymm13, %ymm11
	vshufps	$238, %ymm12, %ymm13, %ymm12
	vperm2f128	$3, %ymm2, %ymm2, %ymm13
	vinsertf128	$1, %xmm12, %ymm11, %ymm11
	vshufps	$68, %ymm13, %ymm2, %ymm12
	vshufps	$238, %ymm13, %ymm2, %ymm13
	vinsertf128	$1, %xmm13, %ymm12, %ymm2
	vmulps	%ymm0, %ymm2, %ymm12
	vmulps	%ymm1, %ymm2, %ymm2
	vfmadd231ps	%ymm1, %ymm11, %ymm12
	vfmsub132ps	%ymm0, %ymm2, %ymm11
	vaddps	%ymm12, %ymm10, %ymm10
	vaddps	%ymm11, %ymm9, %ymm9
	cmpq	%rbx, %rax
	jne	.L105
	vextractf128	$0x1, %ymm10, %xmm0
	vaddps	%xmm10, %xmm0, %xmm0
	vextractf128	$0x1, %ymm9, %xmm2
	vaddps	%xmm9, %xmm2, %xmm2
	vmovhlps	%xmm0, %xmm0, %xmm1
	vaddps	%xmm0, %xmm1, %xmm1
	movl	84(%rsp), %eax
	movl	196(%rsp), %edx
	vshufps	$85, %xmm1, %xmm1, %xmm0
	vaddps	%xmm1, %xmm0, %xmm0
	vmovhlps	%xmm2, %xmm2, %xmm1
	vaddps	%xmm2, %xmm1, %xmm1
	vextractf128	$0x1, %ymm7, %xmm2
	vaddps	%xmm7, %xmm2, %xmm2
	vshufps	$85, %xmm1, %xmm1, %xmm9
	vaddps	%xmm1, %xmm9, %xmm9
	movq	%rcx, 1064(%rsp)
	vunpcklps	%xmm0, %xmm9, %xmm9
	vextractf128	$0x1, %ymm8, %xmm0
	vaddps	%xmm8, %xmm0, %xmm0
	vmovhlps	%xmm0, %xmm0, %xmm1
	vaddps	%xmm0, %xmm1, %xmm1
	vshufps	$85, %xmm1, %xmm1, %xmm0
	vaddps	%xmm1, %xmm0, %xmm0
	vmovhlps	%xmm2, %xmm2, %xmm1
	vaddps	%xmm2, %xmm1, %xmm1
	vextractf128	$0x1, %ymm5, %xmm2
	vaddps	%xmm5, %xmm2, %xmm2
	vshufps	$85, %xmm1, %xmm1, %xmm7
	vaddps	%xmm1, %xmm7, %xmm7
	vunpcklps	%xmm0, %xmm7, %xmm7
	vextractf128	$0x1, %ymm6, %xmm0
	vaddps	%xmm6, %xmm0, %xmm0
	vmovhlps	%xmm0, %xmm0, %xmm1
	vaddps	%xmm0, %xmm1, %xmm1
	vshufps	$85, %xmm1, %xmm1, %xmm0
	vaddps	%xmm1, %xmm0, %xmm0
	vmovhlps	%xmm2, %xmm2, %xmm1
	vaddps	%xmm2, %xmm1, %xmm1
	vshufps	$85, %xmm1, %xmm1, %xmm2
	vaddps	%xmm1, %xmm2, %xmm2
	vunpcklps	%xmm0, %xmm2, %xmm2
	vextractf128	$0x1, %ymm4, %xmm0
	vaddps	%xmm4, %xmm0, %xmm0
	vmovhlps	%xmm0, %xmm0, %xmm1
	vaddps	%xmm0, %xmm1, %xmm1
	vshufps	$85, %xmm1, %xmm1, %xmm0
	vaddps	%xmm1, %xmm0, %xmm0
	vextractf128	$0x1, %ymm3, %xmm1
	vaddps	%xmm3, %xmm1, %xmm1
	vmovhlps	%xmm1, %xmm1, %xmm3
	vaddps	%xmm1, %xmm3, %xmm3
	vshufps	$85, %xmm3, %xmm3, %xmm1
	vaddps	%xmm3, %xmm1, %xmm1
	vunpcklps	%xmm0, %xmm1, %xmm1
	cmpl	%edx, %eax
	je	.L110
	movl	%eax, %edx
.L104:
	movl	196(%rsp), %ebx
	subl	%eax, %ebx
	leal	-1(%rbx), %r12d
	movl	%ebx, 1096(%rsp)
	cmpl	$2, %r12d
	jbe	.L107
	movq	184(%rsp), %rcx
	movslq	%r9d, %r12
	addq	%rax, %r12
	leaq	(%rcx,%r12,8), %r12
	movq	936(%rsp), %rcx
	movq	%r12, 1128(%rsp)
	leaq	(%rax,%rcx), %r12
	leaq	(%r11,%r12,8), %rcx
	movq	%rcx, 1160(%rsp)
	movq	1128(%rsp), %rcx
	movq	968(%rsp), %r12
	vmovups	16(%rcx), %xmm0
	vmovups	(%rcx), %xmm14
	movq	1160(%rsp), %rcx
	vshufps	$136, %xmm0, %xmm14, %xmm11
	vmovups	16(%rcx), %xmm4
	vshufps	$221, %xmm0, %xmm14, %xmm14
	vmovups	(%rcx), %xmm0
	addq	%rax, %r12
	vshufps	$136, %xmm4, %xmm0, %xmm3
	vshufps	$221, %xmm4, %xmm0, %xmm0
	vmulps	%xmm11, %xmm0, %xmm4
	vmulps	%xmm14, %xmm0, %xmm0
	leaq	(%r11,%r12,8), %rbx
	vmovups	16(%rbx), %xmm6
	movq	1000(%rsp), %r12
	vfmadd231ps	%xmm14, %xmm3, %xmm4
	vfmsub132ps	%xmm11, %xmm0, %xmm3
	vmovups	(%rbx), %xmm0
	addq	%rax, %r12
	vshufps	$136, %xmm6, %xmm0, %xmm5
	vshufps	$221, %xmm6, %xmm0, %xmm0
	vmulps	%xmm11, %xmm0, %xmm6
	vmulps	%xmm14, %xmm0, %xmm0
	leaq	(%r11,%r12,8), %r12
	vmovups	16(%r12), %xmm10
	addq	1032(%rsp), %rax
	vfmadd231ps	%xmm14, %xmm5, %xmm6
	vfmsub132ps	%xmm11, %xmm0, %xmm5
	vmovups	(%r12), %xmm0
	leaq	(%r11,%rax,8), %rax
	vshufps	$136, %xmm10, %xmm0, %xmm8
	vshufps	$221, %xmm10, %xmm0, %xmm0
	vmulps	%xmm11, %xmm0, %xmm10
	vmulps	%xmm14, %xmm0, %xmm0
	vmovups	16(%rax), %xmm12
	movl	1096(%rsp), %ebx
	vfmadd231ps	%xmm14, %xmm8, %xmm10
	vfmsub132ps	%xmm11, %xmm0, %xmm8
	vmovups	(%rax), %xmm0
	movl	%ebx, %eax
	vshufps	$136, %xmm12, %xmm0, %xmm13
	vshufps	$221, %xmm12, %xmm0, %xmm0
	vmulps	%xmm11, %xmm0, %xmm12
	vmulps	%xmm14, %xmm0, %xmm0
	andl	$-4, %eax
	addl	%eax, %edx
	vfmadd231ps	%xmm14, %xmm13, %xmm12
	vfmsub231ps	%xmm11, %xmm13, %xmm0
	vmovhlps	%xmm12, %xmm12, %xmm11
	vaddps	%xmm12, %xmm11, %xmm12
	vshufps	$85, %xmm12, %xmm12, %xmm11
	vaddps	%xmm12, %xmm11, %xmm11
	vmovhlps	%xmm0, %xmm0, %xmm12
	vaddps	%xmm0, %xmm12, %xmm12
	vshufps	$85, %xmm12, %xmm12, %xmm0
	vaddps	%xmm12, %xmm0, %xmm0
	vunpcklps	%xmm11, %xmm0, %xmm0
	vaddps	%xmm0, %xmm9, %xmm9
	vmovhlps	%xmm10, %xmm10, %xmm0
	vaddps	%xmm10, %xmm0, %xmm10
	vshufps	$85, %xmm10, %xmm10, %xmm0
	vaddps	%xmm10, %xmm0, %xmm0
	vmovaps	%xmm0, %xmm10
	vmovhlps	%xmm8, %xmm8, %xmm0
	vaddps	%xmm8, %xmm0, %xmm8
	vshufps	$85, %xmm8, %xmm8, %xmm0
	vaddps	%xmm8, %xmm0, %xmm0
	vunpcklps	%xmm10, %xmm0, %xmm0
	vaddps	%xmm0, %xmm7, %xmm7
	vmovhlps	%xmm6, %xmm6, %xmm0
	vaddps	%xmm6, %xmm0, %xmm6
	vshufps	$85, %xmm6, %xmm6, %xmm0
	vaddps	%xmm6, %xmm0, %xmm0
	vmovaps	%xmm0, %xmm6
	vmovhlps	%xmm5, %xmm5, %xmm0
	vaddps	%xmm5, %xmm0, %xmm5
	vshufps	$85, %xmm5, %xmm5, %xmm0
	vaddps	%xmm5, %xmm0, %xmm0
	vunpcklps	%xmm6, %xmm0, %xmm0
	vaddps	%xmm0, %xmm2, %xmm2
	vmovhlps	%xmm4, %xmm4, %xmm0
	vaddps	%xmm4, %xmm0, %xmm4
	vshufps	$85, %xmm4, %xmm4, %xmm0
	vaddps	%xmm4, %xmm0, %xmm0
	vmovaps	%xmm0, %xmm4
	vmovhlps	%xmm3, %xmm3, %xmm0
	vaddps	%xmm3, %xmm0, %xmm3
	vshufps	$85, %xmm3, %xmm3, %xmm0
	vaddps	%xmm3, %xmm0, %xmm0
	vunpcklps	%xmm4, %xmm0, %xmm0
	vaddps	%xmm0, %xmm1, %xmm1
	cmpl	%ebx, %eax
	je	.L110
.L107:
	movq	184(%rsp), %rcx
	movl	116(%rsp), %r12d
	leal	(%r9,%rdx), %eax
	cltq
	vmovq	(%rcx,%rax,8), %xmm0
	leal	(%r12,%rdx), %eax
	cltq
	vmovq	(%r11,%rax,8), %xmm3
	vshufps	$0xe1, %xmm0, %xmm0, %xmm4
	vmovsldup	%xmm3, %xmm5
	vmovshdup	%xmm3, %xmm3
	movl	156(%rsp), %eax
	movl	160(%rsp), %ebx
	vmovaps	%xmm5, %xmm6
	vmulps	%xmm4, %xmm3, %xmm3
	addl	%edx, %eax
	cltq
	vfmadd132ps	%xmm0, %xmm3, %xmm6
	vfmsub132ps	%xmm0, %xmm3, %xmm5
	vmovq	(%r11,%rax,8), %xmm3
	leal	(%rbx,%rdx), %eax
	cltq
	vmovss	%xmm5, %xmm6, %xmm5
	vaddps	%xmm5, %xmm1, %xmm1
	vmovsldup	%xmm3, %xmm5
	vmovshdup	%xmm3, %xmm3
	vmovaps	%xmm5, %xmm6
	vmulps	%xmm4, %xmm3, %xmm3
	vfmadd132ps	%xmm0, %xmm3, %xmm6
	vfmsub132ps	%xmm0, %xmm3, %xmm5
	vmovq	(%r11,%rax,8), %xmm3
	movl	164(%rsp), %eax
	addl	%edx, %eax
	vmovss	%xmm5, %xmm6, %xmm5
	vaddps	%xmm5, %xmm2, %xmm2
	vmovsldup	%xmm3, %xmm5
	vmovshdup	%xmm3, %xmm3
	cltq
	vmovaps	%xmm5, %xmm6
	vmulps	%xmm4, %xmm3, %xmm3
	vfmadd132ps	%xmm0, %xmm3, %xmm6
	vfmsub132ps	%xmm0, %xmm3, %xmm5
	vmovq	(%r11,%rax,8), %xmm3
	leal	1(%rdx), %eax
	vmovss	%xmm5, %xmm6, %xmm5
	vaddps	%xmm5, %xmm7, %xmm7
	vmovsldup	%xmm3, %xmm5
	vmovshdup	%xmm3, %xmm3
	vmulps	%xmm4, %xmm3, %xmm3
	vmovaps	%xmm5, %xmm4
	vfmadd132ps	%xmm0, %xmm3, %xmm4
	vfmsub132ps	%xmm0, %xmm3, %xmm5
	vmovss	%xmm5, %xmm4, %xmm4
	vaddps	%xmm4, %xmm9, %xmm9
	cmpl	%eax, 196(%rsp)
	jle	.L110
	leal	(%r9,%rax), %ebx
	movslq	%ebx, %rbx
	vmovq	(%rcx,%rbx,8), %xmm0
	leal	(%r12,%rax), %ebx
	movslq	%ebx, %rbx
	vmovq	(%r11,%rbx,8), %xmm3
	vshufps	$0xe1, %xmm0, %xmm0, %xmm4
	vmovsldup	%xmm3, %xmm5
	vmovshdup	%xmm3, %xmm3
	movl	156(%rsp), %ebx
	addl	$2, %edx
	vmovaps	%xmm5, %xmm6
	vmulps	%xmm4, %xmm3, %xmm3
	addl	%eax, %ebx
	movslq	%ebx, %rbx
	vfmadd132ps	%xmm0, %xmm3, %xmm6
	vfmsub132ps	%xmm0, %xmm3, %xmm5
	vmovq	(%r11,%rbx,8), %xmm3
	movl	160(%rsp), %ebx
	addl	%eax, %ebx
	vmovss	%xmm5, %xmm6, %xmm5
	vaddps	%xmm5, %xmm1, %xmm1
	vmovsldup	%xmm3, %xmm5
	vmovshdup	%xmm3, %xmm3
	movslq	%ebx, %rbx
	addl	164(%rsp), %eax
	vmovaps	%xmm5, %xmm6
	vmulps	%xmm4, %xmm3, %xmm3
	cltq
	vfmadd132ps	%xmm0, %xmm3, %xmm6
	vfmsub132ps	%xmm0, %xmm3, %xmm5
	vmovq	(%r11,%rbx,8), %xmm3
	vmovss	%xmm5, %xmm6, %xmm5
	vaddps	%xmm5, %xmm2, %xmm2
	vmovsldup	%xmm3, %xmm5
	vmovshdup	%xmm3, %xmm3
	vmovaps	%xmm5, %xmm6
	vmulps	%xmm4, %xmm3, %xmm3
	vfmadd132ps	%xmm0, %xmm3, %xmm6
	vfmsub132ps	%xmm0, %xmm3, %xmm5
	vmovq	(%r11,%rax,8), %xmm3
	vmovss	%xmm5, %xmm6, %xmm5
	vaddps	%xmm5, %xmm7, %xmm7
	vmovsldup	%xmm3, %xmm5
	vmovshdup	%xmm3, %xmm3
	vmulps	%xmm4, %xmm3, %xmm3
	vmovaps	%xmm5, %xmm4
	vfmadd132ps	%xmm0, %xmm3, %xmm4
	vfmsub132ps	%xmm0, %xmm3, %xmm5
	vmovss	%xmm5, %xmm4, %xmm4
	vaddps	%xmm4, %xmm9, %xmm9
	cmpl	%edx, 196(%rsp)
	jle	.L110
	leal	(%r9,%rdx), %eax
	cltq
	vmovq	(%rcx,%rax,8), %xmm0
	leal	(%r12,%rdx), %eax
	cltq
	vmovq	(%r11,%rax,8), %xmm3
	vshufps	$0xe1, %xmm0, %xmm0, %xmm4
	vmovsldup	%xmm3, %xmm5
	vmovshdup	%xmm3, %xmm3
	movl	156(%rsp), %ebx
	vmovaps	%xmm5, %xmm6
	vmulps	%xmm4, %xmm3, %xmm3
	leal	(%rbx,%rdx), %eax
	cltq
	movl	160(%rsp), %ebx
	vfmadd132ps	%xmm0, %xmm3, %xmm6
	vfmsub132ps	%xmm0, %xmm3, %xmm5
	vmovq	(%r11,%rax,8), %xmm3
	leal	(%rbx,%rdx), %eax
	cltq
	addl	164(%rsp), %edx
	vmovss	%xmm5, %xmm6, %xmm5
	vaddps	%xmm5, %xmm1, %xmm1
	vmovsldup	%xmm3, %xmm5
	vmovshdup	%xmm3, %xmm3
	movslq	%edx, %rdx
	vmovaps	%xmm5, %xmm6
	vmulps	%xmm4, %xmm3, %xmm3
	vfmadd132ps	%xmm0, %xmm3, %xmm6
	vfmsub132ps	%xmm0, %xmm3, %xmm5
	vmovq	(%r11,%rax,8), %xmm3
	vmovss	%xmm5, %xmm6, %xmm5
	vaddps	%xmm5, %xmm2, %xmm2
	vmovsldup	%xmm3, %xmm5
	vmovshdup	%xmm3, %xmm3
	vmovaps	%xmm5, %xmm6
	vmulps	%xmm4, %xmm3, %xmm3
	vfmadd132ps	%xmm0, %xmm3, %xmm6
	vfmsub132ps	%xmm0, %xmm3, %xmm5
	vmovq	(%r11,%rdx,8), %xmm3
	vmovss	%xmm5, %xmm6, %xmm5
	vaddps	%xmm5, %xmm7, %xmm7
	vmovsldup	%xmm3, %xmm5
	vmovshdup	%xmm3, %xmm3
	vmulps	%xmm4, %xmm3, %xmm3
	vmovaps	%xmm5, %xmm4
	vfmadd132ps	%xmm0, %xmm3, %xmm4
	vfmsub132ps	%xmm0, %xmm3, %xmm5
	vmovss	%xmm5, %xmm4, %xmm4
	vaddps	%xmm4, %xmm9, %xmm9
.L110:
	vmovq	0(%r13), %xmm0
	addq	$8, %r10
	vaddps	%xmm1, %xmm0, %xmm0
	addq	$8, %r13
	addq	$8, %r14
	vmovlps	%xmm0, -8(%r13)
	vmovq	-8(%r10), %xmm0
	addq	$8, %r15
	vaddps	%xmm2, %xmm0, %xmm0
	addl	196(%rsp), %r9d
	vmovlps	%xmm0, -8(%r10)
	vmovq	-8(%r14), %xmm0
	vaddps	%xmm7, %xmm0, %xmm0
	vmovlps	%xmm0, -8(%r14)
	vmovq	-8(%r15), %xmm0
	vaddps	%xmm9, %xmm0, %xmm0
	vmovlps	%xmm0, -8(%r15)
	cmpq	904(%rsp), %r10
	jne	.L103
.L102:
	addl	$4, 80(%rsp)
	movl	16(%rsp), %eax
	addl	%eax, 64(%rsp)
	addl	%eax, 68(%rsp)
	addl	%eax, 72(%rsp)
	addl	%eax, 76(%rsp)
	movl	80(%rsp), %edi
	movl	152(%rsp), %eax
	addl	%eax, 116(%rsp)
	addl	%eax, 156(%rsp)
	addl	%eax, 160(%rsp)
	addl	%eax, 164(%rsp)
	cmpl	%edi, 28(%rsp)
	jg	.L93
.L92:
	addq	$64, 32(%rsp)
	movl	-32(%rsp), %edi
	addl	%edi, 24(%rsp)
	movq	32(%rsp), %rax
	cmpl	%eax, 44(%rsp)
	jg	.L111
.L112:
	movl	-100(%rsp), %edi
	movl	-28(%rsp), %eax
	addl	%edi, -40(%rsp)
	movl	-32(%rsp), %edi
	addl	%edi, -36(%rsp)
	cmpl	16(%rbp), %eax
	jg	.L89
.L90:
	movl	-28(%rsp), %eax
	cmpl	%eax, 24(%rbp)
	jle	.L135
	movl	40(%rsp), %esi
	testl	%esi, %esi
	jle	.L135
	movl	196(%rsp), %edi
	movl	%esi, %r13d
	imull	%eax, %r13d
	imull	%edi, %eax
	leal	-1(%rsi), %r11d
	movq	%r11, 1064(%rsp)
	movl	%eax, %ebx
	leal	-1(%rdi), %eax
	movl	%eax, 1096(%rsp)
	movl	%edi, %eax
	shrl	$2, %eax
	decl	%eax
	incq	%rax
	salq	$5, %rax
	movq	%rax, %r12
	movq	56(%rsp), %rax
	andl	$-4, %edi
	movq	184(%rsp), %rsi
	movq	48(%rsp), %r11
	movl	%edi, %r14d
	leaq	8(%rax), %r15
	vxorps	%xmm2, %xmm2, %xmm2
.L86:
	movq	56(%rsp), %rdi
	movslq	%r13d, %rax
	leaq	(%rdi,%rax,8), %r9
	addq	1064(%rsp), %rax
	leaq	(%r15,%rax,8), %rax
	movq	%rax, 1128(%rsp)
	movslq	%ebx, %rax
	movq	%rax, 1160(%rsp)
	leaq	(%r11,%rax,8), %rdi
	xorl	%edx, %edx
.L121:
	movl	196(%rsp), %eax
	vmovaps	%xmm2, %xmm0
	vmovaps	%xmm2, %xmm3
	testl	%eax, %eax
	jle	.L120
	cmpl	$2, 1096(%rsp)
	jbe	.L124
	movslq	%edx, %rax
	leaq	(%rsi,%rax,8), %rcx
	vxorps	%xmm4, %xmm4, %xmm4
	xorl	%eax, %eax
.L114:
	vmovups	(%rcx,%rax), %ymm0
	vmovups	(%rdi,%rax), %ymm1
	vpermilps	$177, %ymm0, %ymm5
	vpermilps	$160, %ymm1, %ymm3
	vpermilps	$245, %ymm1, %ymm1
	vmulps	%ymm5, %ymm1, %ymm1
	vmovaps	%ymm0, %ymm5
	addq	$32, %rax
	vfmadd132ps	%ymm3, %ymm1, %ymm5
	vfmsub132ps	%ymm3, %ymm1, %ymm0
	vblendps	$170, %ymm5, %ymm0, %ymm0
	vaddps	%ymm0, %ymm4, %ymm4
	cmpq	%rax, %r12
	jne	.L114
	vextractf128	$0x1, %ymm4, %xmm3
	vaddps	%xmm4, %xmm3, %xmm3
	vunpckhps	%xmm3, %xmm3, %xmm0
	vshufps	$255, %xmm3, %xmm3, %xmm1
	vaddss	%xmm3, %xmm0, %xmm0
	vshufps	$85, %xmm3, %xmm3, %xmm3
	vaddss	%xmm3, %xmm1, %xmm3
	cmpl	196(%rsp), %r14d
	je	.L120
	movl	%r14d, %ecx
	movl	%r14d, %eax
.L113:
	movl	196(%rsp), %r10d
	subl	%ecx, %r10d
	cmpl	$1, %r10d
	je	.L116
	movq	1160(%rsp), %r8
	vunpcklps	%xmm3, %xmm0, %xmm0
	addq	%rcx, %r8
	vmovups	(%r11,%r8,8), %xmm3
	movslq	%edx, %r8
	addq	%rcx, %r8
	vmovups	(%rsi,%r8,8), %xmm1
	vpermilps	$160, %xmm3, %xmm4
	vpermilps	$177, %xmm1, %xmm5
	vpermilps	$245, %xmm3, %xmm3
	vmulps	%xmm5, %xmm3, %xmm3
	vmovaps	%xmm1, %xmm5
	vmovq	%xmm0, %xmm0
	movl	%r10d, %ecx
	andl	$-2, %ecx
	vfmadd132ps	%xmm4, %xmm3, %xmm5
	vfmsub132ps	%xmm4, %xmm3, %xmm1
	addl	%ecx, %eax
	vblendps	$10, %xmm5, %xmm1, %xmm1
	vaddps	%xmm0, %xmm1, %xmm1
	vunpckhps	%xmm1, %xmm1, %xmm0
	vshufps	$255, %xmm1, %xmm1, %xmm3
	vaddss	%xmm1, %xmm0, %xmm0
	vshufps	$85, %xmm1, %xmm1, %xmm1
	vaddss	%xmm1, %xmm3, %xmm3
	cmpl	%r10d, %ecx
	je	.L120
.L116:
	leal	(%rdx,%rax), %ecx
	addl	%ebx, %eax
	movslq	%ecx, %rcx
	cltq
	leaq	(%rsi,%rcx,8), %rcx
	leaq	(%r11,%rax,8), %rax
	vmovss	4(%rax), %xmm5
	vmovss	(%rcx), %xmm7
	vmovss	(%rax), %xmm6
	vmulss	%xmm5, %xmm7, %xmm1
	vmovss	4(%rcx), %xmm4
	vfmadd231ss	%xmm6, %xmm7, %xmm0
	vfmadd231ss	%xmm6, %xmm4, %xmm1
	vfnmadd231ss	%xmm4, %xmm5, %xmm0
	vaddss	%xmm1, %xmm3, %xmm3
.L120:
	vmovss	%xmm0, (%r9)
	vmovss	%xmm3, 4(%r9)
	addq	$8, %r9
	addl	196(%rsp), %edx
	cmpq	1128(%rsp), %r9
	jne	.L121
	incl	-28(%rsp)
	addl	40(%rsp), %r13d
	addl	196(%rsp), %ebx
	movl	-28(%rsp), %eax
	cmpl	%eax, 24(%rbp)
	jne	.L86
.L135:
	vzeroupper
	leaq	-40(%rbp), %rsp
	popq	%rbx
	popq	%r12
	popq	%r13
	popq	%r14
	popq	%r15
	popq	%rbp
	.cfi_remember_state
	.cfi_def_cfa 7, 8
	ret
	.p2align 4,,10
	.p2align 3
.L137:
	.cfi_restore_state
	movl	$0x00000000, 616(%rsp)
	movl	$0x00000000, 232(%rsp)
	movl	$0x00000000, 648(%rsp)
	movl	$0x00000000, 264(%rsp)
	movl	$0x00000000, 680(%rsp)
	movl	$0x00000000, 296(%rsp)
	movl	$0x00000000, 552(%rsp)
	movl	$0x00000000, 328(%rsp)
	movl	$0x00000000, 520(%rsp)
	movl	$0x00000000, 360(%rsp)
	movl	$0x00000000, 488(%rsp)
	movl	$0x00000000, 392(%rsp)
	movl	$0x00000000, 456(%rsp)
	movl	$0x00000000, 424(%rsp)
	movl	$0x00000000, 712(%rsp)
	movl	$0x00000000, 744(%rsp)
	movl	$0x00000000, 776(%rsp)
	movl	$0x00000000, 808(%rsp)
	movl	$0x00000000, 840(%rsp)
	movl	$0x00000000, 872(%rsp)
	movl	$0x00000000, 904(%rsp)
	movl	$0x00000000, 936(%rsp)
	movl	$0x00000000, 968(%rsp)
	movl	$0x00000000, 1000(%rsp)
	movl	$0x00000000, 1032(%rsp)
	movl	$0x00000000, 1064(%rsp)
	movl	$0x00000000, 1096(%rsp)
	movl	$0x00000000, 1128(%rsp)
	movl	$0x00000000, 1160(%rsp)
	xorl	%r8d, %r8d
	xorl	%r9d, %r9d
	xorl	%r10d, %r10d
	jmp	.L101
	.p2align 4,,10
	.p2align 3
.L138:
	vxorps	%xmm9, %xmm9, %xmm9
	vmovaps	%xmm9, %xmm7
	vmovaps	%xmm9, %xmm2
	vmovaps	%xmm9, %xmm1
	jmp	.L110
.L123:
	vxorps	%xmm9, %xmm9, %xmm9
	vmovaps	%xmm9, %xmm7
	vmovaps	%xmm9, %xmm2
	vmovaps	%xmm9, %xmm1
	xorl	%eax, %eax
	xorl	%edx, %edx
	jmp	.L104
.L124:
	xorl	%ecx, %ecx
	vmovaps	%xmm2, %xmm0
	vmovaps	%xmm2, %xmm3
	xorl	%eax, %eax
	jmp	.L113
	.cfi_endproc
.LFE10927:
	.size	_Z19mul_mt_internal_c32P7ComplexIfvES1_S1_iiiii, .-_Z19mul_mt_internal_c32P7ComplexIfvES1_S1_iiiii
	.section	.text._ZNSt6thread11_State_implINS_8_InvokerISt5tupleIJPFvP7ComplexIfvES5_S5_iiiiiES5_S5_S5_iiimmEEEEED2Ev,"axG",@progbits,_ZNSt6thread11_State_implINS_8_InvokerISt5tupleIJPFvP7ComplexIfvES5_S5_iiiiiES5_S5_S5_iiimmEEEEED5Ev,comdat
	.align 2
	.p2align 4
	.weak	_ZNSt6thread11_State_implINS_8_InvokerISt5tupleIJPFvP7ComplexIfvES5_S5_iiiiiES5_S5_S5_iiimmEEEEED2Ev
	.type	_ZNSt6thread11_State_implINS_8_InvokerISt5tupleIJPFvP7ComplexIfvES5_S5_iiiiiES5_S5_S5_iiimmEEEEED2Ev, @function
_ZNSt6thread11_State_implINS_8_InvokerISt5tupleIJPFvP7ComplexIfvES5_S5_iiiiiES5_S5_S5_iiimmEEEEED2Ev:
.LFB12533:
	.cfi_startproc
	endbr64
	leaq	16+_ZTVNSt6thread11_State_implINS_8_InvokerISt5tupleIJPFvP7ComplexIfvES5_S5_iiiiiES5_S5_S5_iiimmEEEEEE(%rip), %rax
	movq	%rax, (%rdi)
	jmp	_ZNSt6thread6_StateD2Ev@PLT
	.cfi_endproc
.LFE12533:
	.size	_ZNSt6thread11_State_implINS_8_InvokerISt5tupleIJPFvP7ComplexIfvES5_S5_iiiiiES5_S5_S5_iiimmEEEEED2Ev, .-_ZNSt6thread11_State_implINS_8_InvokerISt5tupleIJPFvP7ComplexIfvES5_S5_iiiiiES5_S5_S5_iiimmEEEEED2Ev
	.weak	_ZNSt6thread11_State_implINS_8_InvokerISt5tupleIJPFvP7ComplexIfvES5_S5_iiiiiES5_S5_S5_iiimmEEEEED1Ev
	.set	_ZNSt6thread11_State_implINS_8_InvokerISt5tupleIJPFvP7ComplexIfvES5_S5_iiiiiES5_S5_S5_iiimmEEEEED1Ev,_ZNSt6thread11_State_implINS_8_InvokerISt5tupleIJPFvP7ComplexIfvES5_S5_iiiiiES5_S5_S5_iiimmEEEEED2Ev
	.section	.text._ZNSt6thread11_State_implINS_8_InvokerISt5tupleIJPFvP7ComplexIfvES5_S5_iiiiiES5_S5_S5_iiimmEEEEED0Ev,"axG",@progbits,_ZNSt6thread11_State_implINS_8_InvokerISt5tupleIJPFvP7ComplexIfvES5_S5_iiiiiES5_S5_S5_iiimmEEEEED5Ev,comdat
	.align 2
	.p2align 4
	.weak	_ZNSt6thread11_State_implINS_8_InvokerISt5tupleIJPFvP7ComplexIfvES5_S5_iiiiiES5_S5_S5_iiimmEEEEED0Ev
	.type	_ZNSt6thread11_State_implINS_8_InvokerISt5tupleIJPFvP7ComplexIfvES5_S5_iiiiiES5_S5_S5_iiimmEEEEED0Ev, @function
_ZNSt6thread11_State_implINS_8_InvokerISt5tupleIJPFvP7ComplexIfvES5_S5_iiiiiES5_S5_S5_iiimmEEEEED0Ev:
.LFB12535:
	.cfi_startproc
	endbr64
	leaq	16+_ZTVNSt6thread11_State_implINS_8_InvokerISt5tupleIJPFvP7ComplexIfvES5_S5_iiiiiES5_S5_S5_iiimmEEEEEE(%rip), %rax
	pushq	%rbp
	.cfi_def_cfa_offset 16
	.cfi_offset 6, -16
	movq	%rax, (%rdi)
	movq	%rdi, %rbp
	call	_ZNSt6thread6_StateD2Ev@PLT
	movq	%rbp, %rdi
	movl	$72, %esi
	popq	%rbp
	.cfi_def_cfa_offset 8
	jmp	_ZdlPvm@PLT
	.cfi_endproc
.LFE12535:
	.size	_ZNSt6thread11_State_implINS_8_InvokerISt5tupleIJPFvP7ComplexIfvES5_S5_iiiiiES5_S5_S5_iiimmEEEEED0Ev, .-_ZNSt6thread11_State_implINS_8_InvokerISt5tupleIJPFvP7ComplexIfvES5_S5_iiiiiES5_S5_S5_iiimmEEEEED0Ev
	.section	.text._ZNSt6thread11_State_implINS_8_InvokerISt5tupleIJZN14MdArrayUtility5rangeIddvEE13MdStaticArrayIT_ES6_S6_T0_EUlmdmdE_mdmdEEEEED2Ev,"axG",@progbits,_ZNSt6thread11_State_implINS_8_InvokerISt5tupleIJZN14MdArrayUtility5rangeIddvEE13MdStaticArrayIT_ES6_S6_T0_EUlmdmdE_mdmdEEEEED5Ev,comdat
	.align 2
	.p2align 4
	.weak	_ZNSt6thread11_State_implINS_8_InvokerISt5tupleIJZN14MdArrayUtility5rangeIddvEE13MdStaticArrayIT_ES6_S6_T0_EUlmdmdE_mdmdEEEEED2Ev
	.type	_ZNSt6thread11_State_implINS_8_InvokerISt5tupleIJZN14MdArrayUtility5rangeIddvEE13MdStaticArrayIT_ES6_S6_T0_EUlmdmdE_mdmdEEEEED2Ev, @function
_ZNSt6thread11_State_implINS_8_InvokerISt5tupleIJZN14MdArrayUtility5rangeIddvEE13MdStaticArrayIT_ES6_S6_T0_EUlmdmdE_mdmdEEEEED2Ev:
.LFB12501:
	.cfi_startproc
	endbr64
	leaq	16+_ZTVNSt6thread11_State_implINS_8_InvokerISt5tupleIJZN14MdArrayUtility5rangeIddvEE13MdStaticArrayIT_ES6_S6_T0_EUlmdmdE_mdmdEEEEEE(%rip), %rax
	movq	%rax, (%rdi)
	jmp	_ZNSt6thread6_StateD2Ev@PLT
	.cfi_endproc
.LFE12501:
	.size	_ZNSt6thread11_State_implINS_8_InvokerISt5tupleIJZN14MdArrayUtility5rangeIddvEE13MdStaticArrayIT_ES6_S6_T0_EUlmdmdE_mdmdEEEEED2Ev, .-_ZNSt6thread11_State_implINS_8_InvokerISt5tupleIJZN14MdArrayUtility5rangeIddvEE13MdStaticArrayIT_ES6_S6_T0_EUlmdmdE_mdmdEEEEED2Ev
	.weak	_ZNSt6thread11_State_implINS_8_InvokerISt5tupleIJZN14MdArrayUtility5rangeIddvEE13MdStaticArrayIT_ES6_S6_T0_EUlmdmdE_mdmdEEEEED1Ev
	.set	_ZNSt6thread11_State_implINS_8_InvokerISt5tupleIJZN14MdArrayUtility5rangeIddvEE13MdStaticArrayIT_ES6_S6_T0_EUlmdmdE_mdmdEEEEED1Ev,_ZNSt6thread11_State_implINS_8_InvokerISt5tupleIJZN14MdArrayUtility5rangeIddvEE13MdStaticArrayIT_ES6_S6_T0_EUlmdmdE_mdmdEEEEED2Ev
	.section	.text._ZNSt6thread11_State_implINS_8_InvokerISt5tupleIJZN14MdArrayUtility5rangeIddvEE13MdStaticArrayIT_ES6_S6_T0_EUlmdmdE_mdmdEEEEED0Ev,"axG",@progbits,_ZNSt6thread11_State_implINS_8_InvokerISt5tupleIJZN14MdArrayUtility5rangeIddvEE13MdStaticArrayIT_ES6_S6_T0_EUlmdmdE_mdmdEEEEED5Ev,comdat
	.align 2
	.p2align 4
	.weak	_ZNSt6thread11_State_implINS_8_InvokerISt5tupleIJZN14MdArrayUtility5rangeIddvEE13MdStaticArrayIT_ES6_S6_T0_EUlmdmdE_mdmdEEEEED0Ev
	.type	_ZNSt6thread11_State_implINS_8_InvokerISt5tupleIJZN14MdArrayUtility5rangeIddvEE13MdStaticArrayIT_ES6_S6_T0_EUlmdmdE_mdmdEEEEED0Ev, @function
_ZNSt6thread11_State_implINS_8_InvokerISt5tupleIJZN14MdArrayUtility5rangeIddvEE13MdStaticArrayIT_ES6_S6_T0_EUlmdmdE_mdmdEEEEED0Ev:
.LFB12503:
	.cfi_startproc
	endbr64
	leaq	16+_ZTVNSt6thread11_State_implINS_8_InvokerISt5tupleIJZN14MdArrayUtility5rangeIddvEE13MdStaticArrayIT_ES6_S6_T0_EUlmdmdE_mdmdEEEEEE(%rip), %rax
	pushq	%rbp
	.cfi_def_cfa_offset 16
	.cfi_offset 6, -16
	movq	%rax, (%rdi)
	movq	%rdi, %rbp
	call	_ZNSt6thread6_StateD2Ev@PLT
	movq	%rbp, %rdi
	movl	$48, %esi
	popq	%rbp
	.cfi_def_cfa_offset 8
	jmp	_ZdlPvm@PLT
	.cfi_endproc
.LFE12503:
	.size	_ZNSt6thread11_State_implINS_8_InvokerISt5tupleIJZN14MdArrayUtility5rangeIddvEE13MdStaticArrayIT_ES6_S6_T0_EUlmdmdE_mdmdEEEEED0Ev, .-_ZNSt6thread11_State_implINS_8_InvokerISt5tupleIJZN14MdArrayUtility5rangeIddvEE13MdStaticArrayIT_ES6_S6_T0_EUlmdmdE_mdmdEEEEED0Ev
	.section	.text._ZNSt6thread11_State_implINS_8_InvokerISt5tupleIJPFvPfS3_S3_iiiiiES3_S3_S3_iiiiiEEEEED2Ev,"axG",@progbits,_ZNSt6thread11_State_implINS_8_InvokerISt5tupleIJPFvPfS3_S3_iiiiiES3_S3_S3_iiiiiEEEEED5Ev,comdat
	.align 2
	.p2align 4
	.weak	_ZNSt6thread11_State_implINS_8_InvokerISt5tupleIJPFvPfS3_S3_iiiiiES3_S3_S3_iiiiiEEEEED2Ev
	.type	_ZNSt6thread11_State_implINS_8_InvokerISt5tupleIJPFvPfS3_S3_iiiiiES3_S3_S3_iiiiiEEEEED2Ev, @function
_ZNSt6thread11_State_implINS_8_InvokerISt5tupleIJPFvPfS3_S3_iiiiiES3_S3_S3_iiiiiEEEEED2Ev:
.LFB12505:
	.cfi_startproc
	endbr64
	leaq	16+_ZTVNSt6thread11_State_implINS_8_InvokerISt5tupleIJPFvPfS3_S3_iiiiiES3_S3_S3_iiiiiEEEEEE(%rip), %rax
	movq	%rax, (%rdi)
	jmp	_ZNSt6thread6_StateD2Ev@PLT
	.cfi_endproc
.LFE12505:
	.size	_ZNSt6thread11_State_implINS_8_InvokerISt5tupleIJPFvPfS3_S3_iiiiiES3_S3_S3_iiiiiEEEEED2Ev, .-_ZNSt6thread11_State_implINS_8_InvokerISt5tupleIJPFvPfS3_S3_iiiiiES3_S3_S3_iiiiiEEEEED2Ev
	.weak	_ZNSt6thread11_State_implINS_8_InvokerISt5tupleIJPFvPfS3_S3_iiiiiES3_S3_S3_iiiiiEEEEED1Ev
	.set	_ZNSt6thread11_State_implINS_8_InvokerISt5tupleIJPFvPfS3_S3_iiiiiES3_S3_S3_iiiiiEEEEED1Ev,_ZNSt6thread11_State_implINS_8_InvokerISt5tupleIJPFvPfS3_S3_iiiiiES3_S3_S3_iiiiiEEEEED2Ev
	.section	.text._ZNSt6thread11_State_implINS_8_InvokerISt5tupleIJPFvPfS3_S3_iiiiiES3_S3_S3_iiiiiEEEEED0Ev,"axG",@progbits,_ZNSt6thread11_State_implINS_8_InvokerISt5tupleIJPFvPfS3_S3_iiiiiES3_S3_S3_iiiiiEEEEED5Ev,comdat
	.align 2
	.p2align 4
	.weak	_ZNSt6thread11_State_implINS_8_InvokerISt5tupleIJPFvPfS3_S3_iiiiiES3_S3_S3_iiiiiEEEEED0Ev
	.type	_ZNSt6thread11_State_implINS_8_InvokerISt5tupleIJPFvPfS3_S3_iiiiiES3_S3_S3_iiiiiEEEEED0Ev, @function
_ZNSt6thread11_State_implINS_8_InvokerISt5tupleIJPFvPfS3_S3_iiiiiES3_S3_S3_iiiiiEEEEED0Ev:
.LFB12507:
	.cfi_startproc
	endbr64
	leaq	16+_ZTVNSt6thread11_State_implINS_8_InvokerISt5tupleIJPFvPfS3_S3_iiiiiES3_S3_S3_iiiiiEEEEEE(%rip), %rax
	pushq	%rbp
	.cfi_def_cfa_offset 16
	.cfi_offset 6, -16
	movq	%rax, (%rdi)
	movq	%rdi, %rbp
	call	_ZNSt6thread6_StateD2Ev@PLT
	movq	%rbp, %rdi
	movl	$64, %esi
	popq	%rbp
	.cfi_def_cfa_offset 8
	jmp	_ZdlPvm@PLT
	.cfi_endproc
.LFE12507:
	.size	_ZNSt6thread11_State_implINS_8_InvokerISt5tupleIJPFvPfS3_S3_iiiiiES3_S3_S3_iiiiiEEEEED0Ev, .-_ZNSt6thread11_State_implINS_8_InvokerISt5tupleIJPFvPfS3_S3_iiiiiES3_S3_S3_iiiiiEEEEED0Ev
	.section	.text._ZNSt6thread11_State_implINS_8_InvokerISt5tupleIJPFvPfS3_S3_iiiiiES3_S3_S3_iiimmEEEEED2Ev,"axG",@progbits,_ZNSt6thread11_State_implINS_8_InvokerISt5tupleIJPFvPfS3_S3_iiiiiES3_S3_S3_iiimmEEEEED5Ev,comdat
	.align 2
	.p2align 4
	.weak	_ZNSt6thread11_State_implINS_8_InvokerISt5tupleIJPFvPfS3_S3_iiiiiES3_S3_S3_iiimmEEEEED2Ev
	.type	_ZNSt6thread11_State_implINS_8_InvokerISt5tupleIJPFvPfS3_S3_iiiiiES3_S3_S3_iiimmEEEEED2Ev, @function
_ZNSt6thread11_State_implINS_8_InvokerISt5tupleIJPFvPfS3_S3_iiiiiES3_S3_S3_iiimmEEEEED2Ev:
.LFB12509:
	.cfi_startproc
	endbr64
	leaq	16+_ZTVNSt6thread11_State_implINS_8_InvokerISt5tupleIJPFvPfS3_S3_iiiiiES3_S3_S3_iiimmEEEEEE(%rip), %rax
	movq	%rax, (%rdi)
	jmp	_ZNSt6thread6_StateD2Ev@PLT
	.cfi_endproc
.LFE12509:
	.size	_ZNSt6thread11_State_implINS_8_InvokerISt5tupleIJPFvPfS3_S3_iiiiiES3_S3_S3_iiimmEEEEED2Ev, .-_ZNSt6thread11_State_implINS_8_InvokerISt5tupleIJPFvPfS3_S3_iiiiiES3_S3_S3_iiimmEEEEED2Ev
	.weak	_ZNSt6thread11_State_implINS_8_InvokerISt5tupleIJPFvPfS3_S3_iiiiiES3_S3_S3_iiimmEEEEED1Ev
	.set	_ZNSt6thread11_State_implINS_8_InvokerISt5tupleIJPFvPfS3_S3_iiiiiES3_S3_S3_iiimmEEEEED1Ev,_ZNSt6thread11_State_implINS_8_InvokerISt5tupleIJPFvPfS3_S3_iiiiiES3_S3_S3_iiimmEEEEED2Ev
	.section	.text._ZNSt6thread11_State_implINS_8_InvokerISt5tupleIJPFvPfS3_S3_iiiiiES3_S3_S3_iiimmEEEEED0Ev,"axG",@progbits,_ZNSt6thread11_State_implINS_8_InvokerISt5tupleIJPFvPfS3_S3_iiiiiES3_S3_S3_iiimmEEEEED5Ev,comdat
	.align 2
	.p2align 4
	.weak	_ZNSt6thread11_State_implINS_8_InvokerISt5tupleIJPFvPfS3_S3_iiiiiES3_S3_S3_iiimmEEEEED0Ev
	.type	_ZNSt6thread11_State_implINS_8_InvokerISt5tupleIJPFvPfS3_S3_iiiiiES3_S3_S3_iiimmEEEEED0Ev, @function
_ZNSt6thread11_State_implINS_8_InvokerISt5tupleIJPFvPfS3_S3_iiiiiES3_S3_S3_iiimmEEEEED0Ev:
.LFB12511:
	.cfi_startproc
	endbr64
	leaq	16+_ZTVNSt6thread11_State_implINS_8_InvokerISt5tupleIJPFvPfS3_S3_iiiiiES3_S3_S3_iiimmEEEEEE(%rip), %rax
	pushq	%rbp
	.cfi_def_cfa_offset 16
	.cfi_offset 6, -16
	movq	%rax, (%rdi)
	movq	%rdi, %rbp
	call	_ZNSt6thread6_StateD2Ev@PLT
	movq	%rbp, %rdi
	movl	$72, %esi
	popq	%rbp
	.cfi_def_cfa_offset 8
	jmp	_ZdlPvm@PLT
	.cfi_endproc
.LFE12511:
	.size	_ZNSt6thread11_State_implINS_8_InvokerISt5tupleIJPFvPfS3_S3_iiiiiES3_S3_S3_iiimmEEEEED0Ev, .-_ZNSt6thread11_State_implINS_8_InvokerISt5tupleIJPFvPfS3_S3_iiiiiES3_S3_S3_iiimmEEEEED0Ev
	.section	.text._ZNSt6thread11_State_implINS_8_InvokerISt5tupleIJPFvPdS3_S3_iiiiiES3_S3_S3_iiiiiEEEEED2Ev,"axG",@progbits,_ZNSt6thread11_State_implINS_8_InvokerISt5tupleIJPFvPdS3_S3_iiiiiES3_S3_S3_iiiiiEEEEED5Ev,comdat
	.align 2
	.p2align 4
	.weak	_ZNSt6thread11_State_implINS_8_InvokerISt5tupleIJPFvPdS3_S3_iiiiiES3_S3_S3_iiiiiEEEEED2Ev
	.type	_ZNSt6thread11_State_implINS_8_InvokerISt5tupleIJPFvPdS3_S3_iiiiiES3_S3_S3_iiiiiEEEEED2Ev, @function
_ZNSt6thread11_State_implINS_8_InvokerISt5tupleIJPFvPdS3_S3_iiiiiES3_S3_S3_iiiiiEEEEED2Ev:
.LFB12513:
	.cfi_startproc
	endbr64
	leaq	16+_ZTVNSt6thread11_State_implINS_8_InvokerISt5tupleIJPFvPdS3_S3_iiiiiES3_S3_S3_iiiiiEEEEEE(%rip), %rax
	movq	%rax, (%rdi)
	jmp	_ZNSt6thread6_StateD2Ev@PLT
	.cfi_endproc
.LFE12513:
	.size	_ZNSt6thread11_State_implINS_8_InvokerISt5tupleIJPFvPdS3_S3_iiiiiES3_S3_S3_iiiiiEEEEED2Ev, .-_ZNSt6thread11_State_implINS_8_InvokerISt5tupleIJPFvPdS3_S3_iiiiiES3_S3_S3_iiiiiEEEEED2Ev
	.weak	_ZNSt6thread11_State_implINS_8_InvokerISt5tupleIJPFvPdS3_S3_iiiiiES3_S3_S3_iiiiiEEEEED1Ev
	.set	_ZNSt6thread11_State_implINS_8_InvokerISt5tupleIJPFvPdS3_S3_iiiiiES3_S3_S3_iiiiiEEEEED1Ev,_ZNSt6thread11_State_implINS_8_InvokerISt5tupleIJPFvPdS3_S3_iiiiiES3_S3_S3_iiiiiEEEEED2Ev
	.section	.text._ZNSt6thread11_State_implINS_8_InvokerISt5tupleIJPFvPdS3_S3_iiiiiES3_S3_S3_iiiiiEEEEED0Ev,"axG",@progbits,_ZNSt6thread11_State_implINS_8_InvokerISt5tupleIJPFvPdS3_S3_iiiiiES3_S3_S3_iiiiiEEEEED5Ev,comdat
	.align 2
	.p2align 4
	.weak	_ZNSt6thread11_State_implINS_8_InvokerISt5tupleIJPFvPdS3_S3_iiiiiES3_S3_S3_iiiiiEEEEED0Ev
	.type	_ZNSt6thread11_State_implINS_8_InvokerISt5tupleIJPFvPdS3_S3_iiiiiES3_S3_S3_iiiiiEEEEED0Ev, @function
_ZNSt6thread11_State_implINS_8_InvokerISt5tupleIJPFvPdS3_S3_iiiiiES3_S3_S3_iiiiiEEEEED0Ev:
.LFB12515:
	.cfi_startproc
	endbr64
	leaq	16+_ZTVNSt6thread11_State_implINS_8_InvokerISt5tupleIJPFvPdS3_S3_iiiiiES3_S3_S3_iiiiiEEEEEE(%rip), %rax
	pushq	%rbp
	.cfi_def_cfa_offset 16
	.cfi_offset 6, -16
	movq	%rax, (%rdi)
	movq	%rdi, %rbp
	call	_ZNSt6thread6_StateD2Ev@PLT
	movq	%rbp, %rdi
	movl	$64, %esi
	popq	%rbp
	.cfi_def_cfa_offset 8
	jmp	_ZdlPvm@PLT
	.cfi_endproc
.LFE12515:
	.size	_ZNSt6thread11_State_implINS_8_InvokerISt5tupleIJPFvPdS3_S3_iiiiiES3_S3_S3_iiiiiEEEEED0Ev, .-_ZNSt6thread11_State_implINS_8_InvokerISt5tupleIJPFvPdS3_S3_iiiiiES3_S3_S3_iiiiiEEEEED0Ev
	.section	.text._ZNSt6thread11_State_implINS_8_InvokerISt5tupleIJPFvPdS3_S3_iiiiiES3_S3_S3_iiimmEEEEED2Ev,"axG",@progbits,_ZNSt6thread11_State_implINS_8_InvokerISt5tupleIJPFvPdS3_S3_iiiiiES3_S3_S3_iiimmEEEEED5Ev,comdat
	.align 2
	.p2align 4
	.weak	_ZNSt6thread11_State_implINS_8_InvokerISt5tupleIJPFvPdS3_S3_iiiiiES3_S3_S3_iiimmEEEEED2Ev
	.type	_ZNSt6thread11_State_implINS_8_InvokerISt5tupleIJPFvPdS3_S3_iiiiiES3_S3_S3_iiimmEEEEED2Ev, @function
_ZNSt6thread11_State_implINS_8_InvokerISt5tupleIJPFvPdS3_S3_iiiiiES3_S3_S3_iiimmEEEEED2Ev:
.LFB12517:
	.cfi_startproc
	endbr64
	leaq	16+_ZTVNSt6thread11_State_implINS_8_InvokerISt5tupleIJPFvPdS3_S3_iiiiiES3_S3_S3_iiimmEEEEEE(%rip), %rax
	movq	%rax, (%rdi)
	jmp	_ZNSt6thread6_StateD2Ev@PLT
	.cfi_endproc
.LFE12517:
	.size	_ZNSt6thread11_State_implINS_8_InvokerISt5tupleIJPFvPdS3_S3_iiiiiES3_S3_S3_iiimmEEEEED2Ev, .-_ZNSt6thread11_State_implINS_8_InvokerISt5tupleIJPFvPdS3_S3_iiiiiES3_S3_S3_iiimmEEEEED2Ev
	.weak	_ZNSt6thread11_State_implINS_8_InvokerISt5tupleIJPFvPdS3_S3_iiiiiES3_S3_S3_iiimmEEEEED1Ev
	.set	_ZNSt6thread11_State_implINS_8_InvokerISt5tupleIJPFvPdS3_S3_iiiiiES3_S3_S3_iiimmEEEEED1Ev,_ZNSt6thread11_State_implINS_8_InvokerISt5tupleIJPFvPdS3_S3_iiiiiES3_S3_S3_iiimmEEEEED2Ev
	.section	.text._ZNSt6thread11_State_implINS_8_InvokerISt5tupleIJPFvPdS3_S3_iiiiiES3_S3_S3_iiimmEEEEED0Ev,"axG",@progbits,_ZNSt6thread11_State_implINS_8_InvokerISt5tupleIJPFvPdS3_S3_iiiiiES3_S3_S3_iiimmEEEEED5Ev,comdat
	.align 2
	.p2align 4
	.weak	_ZNSt6thread11_State_implINS_8_InvokerISt5tupleIJPFvPdS3_S3_iiiiiES3_S3_S3_iiimmEEEEED0Ev
	.type	_ZNSt6thread11_State_implINS_8_InvokerISt5tupleIJPFvPdS3_S3_iiiiiES3_S3_S3_iiimmEEEEED0Ev, @function
_ZNSt6thread11_State_implINS_8_InvokerISt5tupleIJPFvPdS3_S3_iiiiiES3_S3_S3_iiimmEEEEED0Ev:
.LFB12519:
	.cfi_startproc
	endbr64
	leaq	16+_ZTVNSt6thread11_State_implINS_8_InvokerISt5tupleIJPFvPdS3_S3_iiiiiES3_S3_S3_iiimmEEEEEE(%rip), %rax
	pushq	%rbp
	.cfi_def_cfa_offset 16
	.cfi_offset 6, -16
	movq	%rax, (%rdi)
	movq	%rdi, %rbp
	call	_ZNSt6thread6_StateD2Ev@PLT
	movq	%rbp, %rdi
	movl	$72, %esi
	popq	%rbp
	.cfi_def_cfa_offset 8
	jmp	_ZdlPvm@PLT
	.cfi_endproc
.LFE12519:
	.size	_ZNSt6thread11_State_implINS_8_InvokerISt5tupleIJPFvPdS3_S3_iiiiiES3_S3_S3_iiimmEEEEED0Ev, .-_ZNSt6thread11_State_implINS_8_InvokerISt5tupleIJPFvPdS3_S3_iiiiiES3_S3_S3_iiimmEEEEED0Ev
	.section	.text._ZNSt6thread11_State_implINS_8_InvokerISt5tupleIJPFvP7ComplexIdvES5_S5_iiiiiES5_S5_S5_iiiiiEEEEED2Ev,"axG",@progbits,_ZNSt6thread11_State_implINS_8_InvokerISt5tupleIJPFvP7ComplexIdvES5_S5_iiiiiES5_S5_S5_iiiiiEEEEED5Ev,comdat
	.align 2
	.p2align 4
	.weak	_ZNSt6thread11_State_implINS_8_InvokerISt5tupleIJPFvP7ComplexIdvES5_S5_iiiiiES5_S5_S5_iiiiiEEEEED2Ev
	.type	_ZNSt6thread11_State_implINS_8_InvokerISt5tupleIJPFvP7ComplexIdvES5_S5_iiiiiES5_S5_S5_iiiiiEEEEED2Ev, @function
_ZNSt6thread11_State_implINS_8_InvokerISt5tupleIJPFvP7ComplexIdvES5_S5_iiiiiES5_S5_S5_iiiiiEEEEED2Ev:
.LFB12521:
	.cfi_startproc
	endbr64
	leaq	16+_ZTVNSt6thread11_State_implINS_8_InvokerISt5tupleIJPFvP7ComplexIdvES5_S5_iiiiiES5_S5_S5_iiiiiEEEEEE(%rip), %rax
	movq	%rax, (%rdi)
	jmp	_ZNSt6thread6_StateD2Ev@PLT
	.cfi_endproc
.LFE12521:
	.size	_ZNSt6thread11_State_implINS_8_InvokerISt5tupleIJPFvP7ComplexIdvES5_S5_iiiiiES5_S5_S5_iiiiiEEEEED2Ev, .-_ZNSt6thread11_State_implINS_8_InvokerISt5tupleIJPFvP7ComplexIdvES5_S5_iiiiiES5_S5_S5_iiiiiEEEEED2Ev
	.weak	_ZNSt6thread11_State_implINS_8_InvokerISt5tupleIJPFvP7ComplexIdvES5_S5_iiiiiES5_S5_S5_iiiiiEEEEED1Ev
	.set	_ZNSt6thread11_State_implINS_8_InvokerISt5tupleIJPFvP7ComplexIdvES5_S5_iiiiiES5_S5_S5_iiiiiEEEEED1Ev,_ZNSt6thread11_State_implINS_8_InvokerISt5tupleIJPFvP7ComplexIdvES5_S5_iiiiiES5_S5_S5_iiiiiEEEEED2Ev
	.section	.text._ZNSt6thread11_State_implINS_8_InvokerISt5tupleIJPFvP7ComplexIdvES5_S5_iiiiiES5_S5_S5_iiiiiEEEEED0Ev,"axG",@progbits,_ZNSt6thread11_State_implINS_8_InvokerISt5tupleIJPFvP7ComplexIdvES5_S5_iiiiiES5_S5_S5_iiiiiEEEEED5Ev,comdat
	.align 2
	.p2align 4
	.weak	_ZNSt6thread11_State_implINS_8_InvokerISt5tupleIJPFvP7ComplexIdvES5_S5_iiiiiES5_S5_S5_iiiiiEEEEED0Ev
	.type	_ZNSt6thread11_State_implINS_8_InvokerISt5tupleIJPFvP7ComplexIdvES5_S5_iiiiiES5_S5_S5_iiiiiEEEEED0Ev, @function
_ZNSt6thread11_State_implINS_8_InvokerISt5tupleIJPFvP7ComplexIdvES5_S5_iiiiiES5_S5_S5_iiiiiEEEEED0Ev:
.LFB12523:
	.cfi_startproc
	endbr64
	leaq	16+_ZTVNSt6thread11_State_implINS_8_InvokerISt5tupleIJPFvP7ComplexIdvES5_S5_iiiiiES5_S5_S5_iiiiiEEEEEE(%rip), %rax
	pushq	%rbp
	.cfi_def_cfa_offset 16
	.cfi_offset 6, -16
	movq	%rax, (%rdi)
	movq	%rdi, %rbp
	call	_ZNSt6thread6_StateD2Ev@PLT
	movq	%rbp, %rdi
	movl	$64, %esi
	popq	%rbp
	.cfi_def_cfa_offset 8
	jmp	_ZdlPvm@PLT
	.cfi_endproc
.LFE12523:
	.size	_ZNSt6thread11_State_implINS_8_InvokerISt5tupleIJPFvP7ComplexIdvES5_S5_iiiiiES5_S5_S5_iiiiiEEEEED0Ev, .-_ZNSt6thread11_State_implINS_8_InvokerISt5tupleIJPFvP7ComplexIdvES5_S5_iiiiiES5_S5_S5_iiiiiEEEEED0Ev
	.section	.text._ZNSt6thread11_State_implINS_8_InvokerISt5tupleIJPFvP7ComplexIdvES5_S5_iiiiiES5_S5_S5_iiimmEEEEED2Ev,"axG",@progbits,_ZNSt6thread11_State_implINS_8_InvokerISt5tupleIJPFvP7ComplexIdvES5_S5_iiiiiES5_S5_S5_iiimmEEEEED5Ev,comdat
	.align 2
	.p2align 4
	.weak	_ZNSt6thread11_State_implINS_8_InvokerISt5tupleIJPFvP7ComplexIdvES5_S5_iiiiiES5_S5_S5_iiimmEEEEED2Ev
	.type	_ZNSt6thread11_State_implINS_8_InvokerISt5tupleIJPFvP7ComplexIdvES5_S5_iiiiiES5_S5_S5_iiimmEEEEED2Ev, @function
_ZNSt6thread11_State_implINS_8_InvokerISt5tupleIJPFvP7ComplexIdvES5_S5_iiiiiES5_S5_S5_iiimmEEEEED2Ev:
.LFB12525:
	.cfi_startproc
	endbr64
	leaq	16+_ZTVNSt6thread11_State_implINS_8_InvokerISt5tupleIJPFvP7ComplexIdvES5_S5_iiiiiES5_S5_S5_iiimmEEEEEE(%rip), %rax
	movq	%rax, (%rdi)
	jmp	_ZNSt6thread6_StateD2Ev@PLT
	.cfi_endproc
.LFE12525:
	.size	_ZNSt6thread11_State_implINS_8_InvokerISt5tupleIJPFvP7ComplexIdvES5_S5_iiiiiES5_S5_S5_iiimmEEEEED2Ev, .-_ZNSt6thread11_State_implINS_8_InvokerISt5tupleIJPFvP7ComplexIdvES5_S5_iiiiiES5_S5_S5_iiimmEEEEED2Ev
	.weak	_ZNSt6thread11_State_implINS_8_InvokerISt5tupleIJPFvP7ComplexIdvES5_S5_iiiiiES5_S5_S5_iiimmEEEEED1Ev
	.set	_ZNSt6thread11_State_implINS_8_InvokerISt5tupleIJPFvP7ComplexIdvES5_S5_iiiiiES5_S5_S5_iiimmEEEEED1Ev,_ZNSt6thread11_State_implINS_8_InvokerISt5tupleIJPFvP7ComplexIdvES5_S5_iiiiiES5_S5_S5_iiimmEEEEED2Ev
	.section	.text._ZNSt6thread11_State_implINS_8_InvokerISt5tupleIJPFvP7ComplexIdvES5_S5_iiiiiES5_S5_S5_iiimmEEEEED0Ev,"axG",@progbits,_ZNSt6thread11_State_implINS_8_InvokerISt5tupleIJPFvP7ComplexIdvES5_S5_iiiiiES5_S5_S5_iiimmEEEEED5Ev,comdat
	.align 2
	.p2align 4
	.weak	_ZNSt6thread11_State_implINS_8_InvokerISt5tupleIJPFvP7ComplexIdvES5_S5_iiiiiES5_S5_S5_iiimmEEEEED0Ev
	.type	_ZNSt6thread11_State_implINS_8_InvokerISt5tupleIJPFvP7ComplexIdvES5_S5_iiiiiES5_S5_S5_iiimmEEEEED0Ev, @function
_ZNSt6thread11_State_implINS_8_InvokerISt5tupleIJPFvP7ComplexIdvES5_S5_iiiiiES5_S5_S5_iiimmEEEEED0Ev:
.LFB12527:
	.cfi_startproc
	endbr64
	leaq	16+_ZTVNSt6thread11_State_implINS_8_InvokerISt5tupleIJPFvP7ComplexIdvES5_S5_iiiiiES5_S5_S5_iiimmEEEEEE(%rip), %rax
	pushq	%rbp
	.cfi_def_cfa_offset 16
	.cfi_offset 6, -16
	movq	%rax, (%rdi)
	movq	%rdi, %rbp
	call	_ZNSt6thread6_StateD2Ev@PLT
	movq	%rbp, %rdi
	movl	$72, %esi
	popq	%rbp
	.cfi_def_cfa_offset 8
	jmp	_ZdlPvm@PLT
	.cfi_endproc
.LFE12527:
	.size	_ZNSt6thread11_State_implINS_8_InvokerISt5tupleIJPFvP7ComplexIdvES5_S5_iiiiiES5_S5_S5_iiimmEEEEED0Ev, .-_ZNSt6thread11_State_implINS_8_InvokerISt5tupleIJPFvP7ComplexIdvES5_S5_iiiiiES5_S5_S5_iiimmEEEEED0Ev
	.section	.text._ZNSt6thread11_State_implINS_8_InvokerISt5tupleIJPFvP7ComplexIfvES5_S5_iiiiiES5_S5_S5_iiiiiEEEEED2Ev,"axG",@progbits,_ZNSt6thread11_State_implINS_8_InvokerISt5tupleIJPFvP7ComplexIfvES5_S5_iiiiiES5_S5_S5_iiiiiEEEEED5Ev,comdat
	.align 2
	.p2align 4
	.weak	_ZNSt6thread11_State_implINS_8_InvokerISt5tupleIJPFvP7ComplexIfvES5_S5_iiiiiES5_S5_S5_iiiiiEEEEED2Ev
	.type	_ZNSt6thread11_State_implINS_8_InvokerISt5tupleIJPFvP7ComplexIfvES5_S5_iiiiiES5_S5_S5_iiiiiEEEEED2Ev, @function
_ZNSt6thread11_State_implINS_8_InvokerISt5tupleIJPFvP7ComplexIfvES5_S5_iiiiiES5_S5_S5_iiiiiEEEEED2Ev:
.LFB12529:
	.cfi_startproc
	endbr64
	leaq	16+_ZTVNSt6thread11_State_implINS_8_InvokerISt5tupleIJPFvP7ComplexIfvES5_S5_iiiiiES5_S5_S5_iiiiiEEEEEE(%rip), %rax
	movq	%rax, (%rdi)
	jmp	_ZNSt6thread6_StateD2Ev@PLT
	.cfi_endproc
.LFE12529:
	.size	_ZNSt6thread11_State_implINS_8_InvokerISt5tupleIJPFvP7ComplexIfvES5_S5_iiiiiES5_S5_S5_iiiiiEEEEED2Ev, .-_ZNSt6thread11_State_implINS_8_InvokerISt5tupleIJPFvP7ComplexIfvES5_S5_iiiiiES5_S5_S5_iiiiiEEEEED2Ev
	.weak	_ZNSt6thread11_State_implINS_8_InvokerISt5tupleIJPFvP7ComplexIfvES5_S5_iiiiiES5_S5_S5_iiiiiEEEEED1Ev
	.set	_ZNSt6thread11_State_implINS_8_InvokerISt5tupleIJPFvP7ComplexIfvES5_S5_iiiiiES5_S5_S5_iiiiiEEEEED1Ev,_ZNSt6thread11_State_implINS_8_InvokerISt5tupleIJPFvP7ComplexIfvES5_S5_iiiiiES5_S5_S5_iiiiiEEEEED2Ev
	.section	.text._ZNSt6thread11_State_implINS_8_InvokerISt5tupleIJPFvP7ComplexIfvES5_S5_iiiiiES5_S5_S5_iiiiiEEEEED0Ev,"axG",@progbits,_ZNSt6thread11_State_implINS_8_InvokerISt5tupleIJPFvP7ComplexIfvES5_S5_iiiiiES5_S5_S5_iiiiiEEEEED5Ev,comdat
	.align 2
	.p2align 4
	.weak	_ZNSt6thread11_State_implINS_8_InvokerISt5tupleIJPFvP7ComplexIfvES5_S5_iiiiiES5_S5_S5_iiiiiEEEEED0Ev
	.type	_ZNSt6thread11_State_implINS_8_InvokerISt5tupleIJPFvP7ComplexIfvES5_S5_iiiiiES5_S5_S5_iiiiiEEEEED0Ev, @function
_ZNSt6thread11_State_implINS_8_InvokerISt5tupleIJPFvP7ComplexIfvES5_S5_iiiiiES5_S5_S5_iiiiiEEEEED0Ev:
.LFB12531:
	.cfi_startproc
	endbr64
	leaq	16+_ZTVNSt6thread11_State_implINS_8_InvokerISt5tupleIJPFvP7ComplexIfvES5_S5_iiiiiES5_S5_S5_iiiiiEEEEEE(%rip), %rax
	pushq	%rbp
	.cfi_def_cfa_offset 16
	.cfi_offset 6, -16
	movq	%rax, (%rdi)
	movq	%rdi, %rbp
	call	_ZNSt6thread6_StateD2Ev@PLT
	movq	%rbp, %rdi
	movl	$64, %esi
	popq	%rbp
	.cfi_def_cfa_offset 8
	jmp	_ZdlPvm@PLT
	.cfi_endproc
.LFE12531:
	.size	_ZNSt6thread11_State_implINS_8_InvokerISt5tupleIJPFvP7ComplexIfvES5_S5_iiiiiES5_S5_S5_iiiiiEEEEED0Ev, .-_ZNSt6thread11_State_implINS_8_InvokerISt5tupleIJPFvP7ComplexIfvES5_S5_iiiiiES5_S5_S5_iiiiiEEEEED0Ev
	.text
	.p2align 4
	.globl	_Z19mul_mt_internal_f64PdS_S_iiiii
	.type	_Z19mul_mt_internal_f64PdS_S_iiiii, @function
_Z19mul_mt_internal_f64PdS_S_iiiii:
.LFB10944:
	.cfi_startproc
	endbr64
	pushq	%rbp
	.cfi_def_cfa_offset 16
	.cfi_offset 6, -16
	movq	%rsp, %rbp
	.cfi_def_cfa_register 6
	pushq	%r15
	.cfi_offset 15, -24
	movq	%rdi, %r15
	pushq	%r14
	.cfi_offset 14, -32
	movq	%rsi, %r14
	pushq	%r13
	pushq	%r12
	pushq	%rbx
	andq	$-32, %rsp
	subq	$744, %rsp
	.cfi_offset 13, -40
	.cfi_offset 12, -48
	.cfi_offset 3, -56
	movq	%rdx, 64(%rsp)
	movl	%r8d, 388(%rsp)
	movl	%r9d, 48(%rsp)
	movl	24(%rbp), %eax
	movl	24(%rbp), %ebx
	subl	16(%rbp), %eax
	andl	$3, %eax
	subl	%eax, %ebx
	movl	%ebx, -20(%rsp)
	cmpl	16(%rbp), %ebx
	jle	.L173
	movl	%r9d, %esi
	sall	$6, %esi
	movl	%esi, -72(%rsp)
	movl	%r8d, %esi
	sall	$6, %esi
	movl	%esi, -24(%rsp)
	movl	%r9d, %esi
	imull	16(%rbp), %esi
	movl	%r9d, %eax
	andl	$-4, %eax
	movl	%esi, -64(%rsp)
	movl	16(%rbp), %esi
	movl	%eax, %ebx
	movl	%eax, 52(%rsp)
	leal	0(,%r9,4), %eax
	leal	1(%rsi), %edx
	movl	%eax, 16(%rsp)
	movl	%r9d, %eax
	imull	%edx, %eax
	movl	%r9d, %edi
	movl	%r8d, %r11d
	movl	%eax, -60(%rsp)
	movl	16(%rbp), %eax
	andl	$-16, %r11d
	leal	2(%rax), %ecx
	movl	%r9d, %eax
	imull	%ecx, %eax
	movl	%r11d, 356(%rsp)
	movl	$0, -28(%rsp)
	movl	%eax, -56(%rsp)
	movl	16(%rbp), %eax
	movl	$0, -32(%rsp)
	addl	$3, %eax
	imull	%eax, %edi
	movl	%edi, -52(%rsp)
	leal	0(,%r8,4), %edi
	movl	%edi, 336(%rsp)
	movl	%r8d, %edi
	imull	%edi, %eax
	imull	%edi, %edx
	imull	16(%rbp), %r8d
	movl	%eax, -36(%rsp)
	leal	(%rdi,%rdi), %eax
	movl	%eax, 24(%rsp)
	leal	-1(%r11), %eax
	shrl	$4, %eax
	salq	$4, %rax
	movq	%rax, 128(%rsp)
	movl	%ebx, %eax
	imull	%edi, %eax
	movl	%edx, -44(%rsp)
	movl	%edi, %edx
	movl	%eax, 12(%rsp)
	leal	-1(%rdi), %eax
	movl	%eax, 124(%rsp)
	movl	%edi, %eax
	shrl	$2, %eax
	decl	%eax
	incq	%rax
	salq	$5, %rax
	andl	$-4, %edx
	imull	%edi, %ecx
	movq	%rax, 104(%rsp)
	leal	-1(%r9), %eax
	movl	%edx, 120(%rsp)
	subl	%ebx, %eax
	movslq	%ebx, %rdx
	addq	%rdx, %rax
	movl	%r8d, -48(%rsp)
	movl	%ecx, -40(%rsp)
	movq	%rdx, -8(%rsp)
	movq	%rax, -16(%rsp)
.L172:
	movl	16(%rbp), %eax
	addl	$64, 16(%rbp)
	movl	-20(%rsp), %ebx
	movl	%eax, -68(%rsp)
	addl	$63, %eax
	cmpl	%eax, %ebx
	cmovg	16(%rbp), %ebx
	movl	52(%rsp), %r9d
	movl	%ebx, 36(%rsp)
	testl	%r9d, %r9d
	jle	.L195
	movl	-32(%rsp), %eax
	movl	-64(%rsp), %ebx
	movq	$0, 40(%rsp)
	addl	%eax, %ebx
	movl	%ebx, -104(%rsp)
	movl	-60(%rsp), %ebx
	addl	%eax, %ebx
	movl	%ebx, -100(%rsp)
	movl	-56(%rsp), %ebx
	addl	%eax, %ebx
	movl	%ebx, -96(%rsp)
	movl	-52(%rsp), %ebx
	addl	%eax, %ebx
	movl	%ebx, -92(%rsp)
	movl	-28(%rsp), %eax
	movl	-48(%rsp), %ebx
	addl	%eax, %ebx
	movl	%ebx, -88(%rsp)
	movl	-44(%rsp), %ebx
	addl	%eax, %ebx
	movl	%ebx, -84(%rsp)
	movl	-40(%rsp), %ebx
	addl	%eax, %ebx
	movl	%ebx, -80(%rsp)
	movl	-36(%rsp), %ebx
	addl	%eax, %ebx
	movl	388(%rsp), %eax
	movl	%ebx, -76(%rsp)
	movl	%eax, 32(%rsp)
.L194:
	movq	40(%rsp), %rbx
	movl	52(%rsp), %esi
	movl	%ebx, %eax
	leal	63(%rbx), %edx
	addl	$64, %eax
	cmpl	%edx, %esi
	cmovle	%esi, %eax
	movl	-68(%rsp), %esi
	movl	%eax, 28(%rsp)
	cmpl	%esi, 36(%rsp)
	jle	.L175
	subl	%ebx, %eax
	decl	%eax
	shrl	$2, %eax
	salq	$2, %rax
	movq	%rax, (%rsp)
	movl	-76(%rsp), %eax
	movl	24(%rsp), %edx
	movl	%eax, 100(%rsp)
	movl	-80(%rsp), %eax
	addl	32(%rsp), %edx
	movl	%eax, 384(%rsp)
	movl	-84(%rsp), %eax
	movl	%ebx, 20(%rsp)
	movl	%eax, 96(%rsp)
	movl	-88(%rsp), %eax
	movl	%edx, 8(%rsp)
	movl	%eax, 92(%rsp)
	movl	-92(%rsp), %eax
	movl	%esi, 88(%rsp)
	movl	%eax, 84(%rsp)
	movl	-96(%rsp), %eax
	movq	%r15, 56(%rsp)
	movl	%eax, 80(%rsp)
	movl	-100(%rsp), %eax
	movq	%r14, 152(%rsp)
	movl	%eax, 76(%rsp)
	movl	-104(%rsp), %eax
	movl	%eax, 72(%rsp)
	leaq	128(%r14), %rax
	movq	%rax, 112(%rsp)
	.p2align 4,,10
	.p2align 3
.L176:
	movl	20(%rsp), %ebx
	cmpl	%ebx, 28(%rsp)
	jle	.L180
	movq	40(%rsp), %rsi
	movslq	72(%rsp), %rcx
	movq	64(%rsp), %rdi
	leaq	(%rsi,%rcx), %rax
	leaq	(%rdi,%rax,8), %rbx
	movslq	76(%rsp), %r12
	movslq	80(%rsp), %rdx
	movslq	84(%rsp), %rax
	addq	%rsi, %rdx
	addq	%rsi, %rax
	addq	%rsi, %r12
	leaq	(%rdi,%rdx,8), %r11
	leaq	(%rdi,%rax,8), %r15
	movq	%rdi, %rdx
	leaq	(%rdi,%r12,8), %r12
	movl	32(%rsp), %edi
	movl	24(%rsp), %r14d
	movl	%edi, %eax
	subl	388(%rsp), %eax
	addl	%eax, %r14d
	movl	%eax, 340(%rsp)
	movq	(%rsp), %rax
	movl	%r14d, 348(%rsp)
	addq	%rsi, %rax
	addq	%rcx, %rax
	leaq	32(%rdx,%rax,8), %rax
	movq	56(%rsp), %rsi
	movq	%rax, 144(%rsp)
	movslq	92(%rsp), %rax
	movl	%edi, 344(%rsp)
	leaq	(%rsi,%rax,8), %rax
	movq	%rax, 376(%rsp)
	movslq	96(%rsp), %rax
	leaq	(%rsi,%rax,8), %rax
	movq	%rax, 368(%rsp)
	movslq	384(%rsp), %rax
	leaq	(%rsi,%rax,8), %rax
	movq	%rax, 136(%rsp)
	movslq	100(%rsp), %rax
	leaq	(%rsi,%rax,8), %rax
	movq	%rax, 360(%rsp)
	movl	8(%rsp), %eax
	movl	%eax, 352(%rsp)
	.p2align 4,,10
	.p2align 3
.L179:
	movl	356(%rsp), %r8d
	testl	%r8d, %r8d
	jle	.L224
	movq	152(%rsp), %rsi
	movslq	344(%rsp), %rcx
	movslq	340(%rsp), %rdx
	leaq	(%rsi,%rcx,8), %r10
	movslq	348(%rsp), %rcx
	leaq	(%rsi,%rdx,8), %rax
	leaq	(%rsi,%rcx,8), %r9
	movslq	352(%rsp), %rcx
	addq	128(%rsp), %rdx
	leaq	(%rsi,%rcx,8), %r8
	movq	112(%rsp), %rsi
	vxorpd	%xmm1, %xmm1, %xmm1
	leaq	(%rsi,%rdx,8), %r13
	movq	360(%rsp), %rdi
	movq	136(%rsp), %rsi
	movq	368(%rsp), %rcx
	movq	376(%rsp), %rdx
	vmovapd	%ymm1, 712(%rsp)
	vmovapd	%ymm1, %ymm2
	vmovapd	%ymm1, %ymm3
	vmovapd	%ymm1, %ymm7
	vmovapd	%ymm1, 392(%rsp)
	vmovapd	%ymm1, 424(%rsp)
	vmovapd	%ymm1, 456(%rsp)
	vmovapd	%ymm1, 488(%rsp)
	vmovapd	%ymm1, 520(%rsp)
	vmovapd	%ymm1, 552(%rsp)
	vmovapd	%ymm1, 584(%rsp)
	vmovapd	%ymm1, 616(%rsp)
	vmovapd	%ymm1, 648(%rsp)
	vmovapd	%ymm1, 680(%rsp)
	vmovapd	%ymm1, %ymm10
	vmovapd	%ymm1, %ymm11
	.p2align 4,,10
	.p2align 3
.L177:
	vmovupd	(%r9), %ymm1
	vmovupd	(%rdx), %ymm0
	vmovapd	680(%rsp), %ymm6
	vmovupd	32(%rdx), %ymm9
	vfmadd231pd	%ymm1, %ymm0, %ymm6
	vmovupd	(%r10), %ymm4
	vmovupd	(%r8), %ymm13
	vfmadd231pd	(%rax), %ymm0, %ymm11
	vfmadd231pd	%ymm4, %ymm0, %ymm10
	vfmadd231pd	32(%r9), %ymm9, %ymm6
	vfmadd213pd	648(%rsp), %ymm13, %ymm0
	vmovupd	32(%r8), %ymm12
	vmovupd	64(%rdx), %ymm5
	vfmadd231pd	32(%rax), %ymm9, %ymm11
	vfmadd231pd	32(%r10), %ymm9, %ymm10
	vfmadd231pd	64(%r9), %ymm5, %ymm6
	vfmadd231pd	%ymm12, %ymm9, %ymm0
	vmovupd	96(%rdx), %ymm8
	vfmadd231pd	64(%rax), %ymm5, %ymm11
	vfmadd231pd	64(%r10), %ymm5, %ymm10
	vfmadd231pd	96(%r9), %ymm8, %ymm6
	vfmadd132pd	64(%r8), %ymm0, %ymm5
	vmovapd	616(%rsp), %ymm9
	vmovupd	(%rcx), %ymm0
	vfmadd231pd	96(%rax), %ymm8, %ymm11
	vfmadd231pd	96(%r10), %ymm8, %ymm10
	vmovapd	%ymm6, 680(%rsp)
	vfmadd132pd	96(%r8), %ymm5, %ymm8
	vmovapd	552(%rsp), %ymm6
	vfmadd231pd	(%rax), %ymm0, %ymm9
	vfmadd231pd	%ymm1, %ymm0, %ymm6
	vmovupd	32(%rcx), %ymm15
	vmovapd	%ymm8, 648(%rsp)
	vmovapd	584(%rsp), %ymm8
	vmovupd	64(%rcx), %ymm5
	vmovupd	96(%rcx), %ymm14
	vfmadd231pd	%ymm4, %ymm0, %ymm8
	vfmadd213pd	520(%rsp), %ymm13, %ymm0
	vfmadd231pd	32(%rax), %ymm15, %ymm9
	vfmadd231pd	32(%r9), %ymm15, %ymm6
	subq	$-128, %rax
	vfmadd231pd	32(%r10), %ymm15, %ymm8
	vfmadd231pd	%ymm12, %ymm15, %ymm0
	vfmadd231pd	-64(%rax), %ymm5, %ymm9
	vfmadd231pd	64(%r9), %ymm5, %ymm6
	vmovupd	32(%rsi), %ymm15
	vfmadd231pd	64(%r10), %ymm5, %ymm8
	vfmadd132pd	64(%r8), %ymm0, %ymm5
	vfmadd231pd	-32(%rax), %ymm14, %ymm9
	vfmadd231pd	96(%r9), %ymm14, %ymm6
	vmovupd	(%rsi), %ymm0
	vfmadd231pd	96(%r10), %ymm14, %ymm8
	vfmadd132pd	96(%r8), %ymm5, %ymm14
	vmovapd	%ymm9, 616(%rsp)
	vmovapd	%ymm6, 552(%rsp)
	vmovapd	488(%rsp), %ymm9
	vmovapd	424(%rsp), %ymm6
	vfmadd231pd	-128(%rax), %ymm0, %ymm9
	vfmadd231pd	%ymm1, %ymm0, %ymm6
	vmovapd	%ymm8, 584(%rsp)
	vmovapd	456(%rsp), %ymm8
	vmovupd	64(%rsi), %ymm5
	vfmadd231pd	%ymm4, %ymm0, %ymm8
	vfmadd231pd	32(%r9), %ymm15, %ymm6
	vfmadd231pd	-96(%rax), %ymm15, %ymm9
	vfmadd213pd	392(%rsp), %ymm13, %ymm0
	vmovapd	%ymm14, 520(%rsp)
	vfmadd231pd	32(%r10), %ymm15, %ymm8
	vfmadd231pd	64(%r9), %ymm5, %ymm6
	vfmadd231pd	-64(%rax), %ymm5, %ymm9
	vfmadd231pd	%ymm12, %ymm15, %ymm0
	vmovupd	96(%rsi), %ymm14
	vfmadd231pd	64(%r10), %ymm5, %ymm8
	subq	$-128, %r9
	subq	$-128, %r10
	vfmadd132pd	64(%r8), %ymm0, %ymm5
	vfmadd231pd	-32(%rax), %ymm14, %ymm9
	vfmadd231pd	-32(%r9), %ymm14, %ymm6
	vfmadd231pd	-32(%r10), %ymm14, %ymm8
	vmovupd	64(%rdi), %ymm0
	vfmadd132pd	96(%r8), %ymm5, %ymm14
	vmovupd	32(%rdi), %ymm5
	vmovapd	%ymm6, 424(%rsp)
	vmovupd	(%rdi), %ymm6
	vmovapd	%ymm8, 456(%rsp)
	vfmadd231pd	-128(%rax), %ymm6, %ymm7
	vfmadd132pd	%ymm6, %ymm3, %ymm4
	vfmadd132pd	%ymm6, %ymm2, %ymm1
	vfmadd213pd	712(%rsp), %ymm13, %ymm6
	vmovupd	96(%rdi), %ymm8
	vfmadd231pd	-96(%rax), %ymm5, %ymm7
	vmovapd	%ymm4, %ymm3
	vfmadd231pd	-96(%r10), %ymm5, %ymm3
	vfmadd231pd	-96(%r9), %ymm5, %ymm1
	vfmadd132pd	%ymm12, %ymm6, %ymm5
	vmovapd	%ymm7, %ymm2
	vfmadd231pd	-64(%rax), %ymm0, %ymm2
	vfmadd231pd	-64(%r10), %ymm0, %ymm3
	vfmadd231pd	-64(%r9), %ymm0, %ymm1
	vfmadd132pd	64(%r8), %ymm5, %ymm0
	vmovapd	%ymm9, 488(%rsp)
	vmovapd	%ymm2, %ymm7
	vfmadd231pd	-32(%rax), %ymm8, %ymm7
	vfmadd231pd	-32(%r9), %ymm8, %ymm1
	vfmadd231pd	-32(%r10), %ymm8, %ymm3
	vfmadd132pd	96(%r8), %ymm0, %ymm8
	vmovapd	%ymm14, 392(%rsp)
	subq	$-128, %r8
	vmovapd	%ymm1, %ymm2
	subq	$-128, %rdx
	vmovapd	%ymm8, 712(%rsp)
	subq	$-128, %rcx
	subq	$-128, %rsi
	subq	$-128, %rdi
	cmpq	%rax, %r13
	jne	.L177
	vhaddpd	%xmm14, %xmm14, %xmm1
	vmovapd	424(%rsp), %ymm4
	vextractf128	$0x1, %ymm14, %xmm0
	vmovq	%xmm1, %rax
	vextractf128	$0x1, %ymm7, %xmm1
	vmovlpd	%xmm1, 328(%rsp)
	vunpckhpd	%xmm1, %xmm1, %xmm12
	vextractf128	$0x1, %ymm3, %xmm1
	vmovhpd	%xmm1, 320(%rsp)
	vmovlpd	%xmm1, 312(%rsp)
	vextractf128	$0x1, %ymm2, %xmm1
	vhaddpd	%xmm9, %xmm9, %xmm5
	vmovhpd	%xmm1, 304(%rsp)
	vmovlpd	%xmm1, 296(%rsp)
	vextractf128	$0x1, %ymm8, %xmm1
	vmovlpd	%xmm0, 392(%rsp)
	vmovlpd	%xmm1, 288(%rsp)
	vmovhpd	%xmm0, 280(%rsp)
	vunpckhpd	%xmm1, %xmm1, %xmm15
	vextractf128	$0x1, %ymm4, %xmm0
	vhaddpd	%xmm4, %xmm4, %xmm1
	vmovapd	456(%rsp), %ymm4
	vmovlpd	%xmm0, 424(%rsp)
	vmovhpd	%xmm0, 272(%rsp)
	vmovq	%xmm5, %rdx
	vextractf128	$0x1, %ymm4, %xmm0
	vmovapd	520(%rsp), %ymm5
	vmovapd	552(%rsp), %ymm6
	vmovlpd	%xmm0, 456(%rsp)
	vmovhpd	%xmm0, 264(%rsp)
	vextractf128	$0x1, %ymm9, %xmm0
	vmovlpd	%xmm0, 488(%rsp)
	vmovhpd	%xmm0, 256(%rsp)
	vextractf128	$0x1, %ymm5, %xmm0
	vmovlpd	%xmm0, 520(%rsp)
	vmovhpd	%xmm0, 248(%rsp)
	vextractf128	$0x1, %ymm6, %xmm0
	vmovlpd	%xmm0, 552(%rsp)
	vmovhpd	%xmm0, 240(%rsp)
	vmovapd	584(%rsp), %ymm0
	vmovapd	616(%rsp), %ymm14
	vhaddpd	%xmm4, %xmm4, %xmm13
	vhaddpd	%xmm5, %xmm5, %xmm4
	vhaddpd	%xmm6, %xmm6, %xmm5
	vhaddpd	%xmm0, %xmm0, %xmm6
	vextractf128	$0x1, %ymm0, %xmm0
	vmovlpd	%xmm0, 584(%rsp)
	vmovhpd	%xmm0, 232(%rsp)
	vhaddpd	%xmm14, %xmm14, %xmm0
	vhaddpd	%xmm7, %xmm7, %xmm7
	vhaddpd	%xmm2, %xmm2, %xmm2
	vmovq	%xmm0, %rcx
	vextractf128	$0x1, %ymm14, %xmm0
	vmovlpd	%xmm0, 616(%rsp)
	vmovhpd	%xmm0, 224(%rsp)
	vmovapd	648(%rsp), %ymm0
	vhaddpd	%xmm0, %xmm0, %xmm8
	vextractf128	$0x1, %ymm0, %xmm0
	vmovlpd	%xmm0, 648(%rsp)
	vmovhpd	%xmm0, 216(%rsp)
	vmovapd	680(%rsp), %ymm0
	vhaddpd	%xmm0, %xmm0, %xmm9
	vextractf128	$0x1, %ymm0, %xmm0
	vmovlpd	%xmm0, 680(%rsp)
	vmovhpd	%xmm0, 208(%rsp)
	vhaddpd	%xmm10, %xmm10, %xmm0
	vmovapd	712(%rsp), %xmm14
	vmovsd	%xmm7, 168(%rsp)
	vmovq	%xmm0, %rsi
	vextractf128	$0x1, %ymm10, %xmm0
	vmovsd	%xmm0, %xmm0, %xmm10
	vmovhpd	%xmm0, 200(%rsp)
	vhaddpd	%xmm11, %xmm11, %xmm0
	vmovsd	%xmm2, 160(%rsp)
	vmovq	%xmm0, %rdi
	vextractf128	$0x1, %ymm11, %xmm0
	vmovsd	%xmm0, %xmm0, %xmm11
	vmovhpd	%xmm0, 192(%rsp)
	vhaddpd	%xmm3, %xmm3, %xmm0
	vhaddpd	%xmm14, %xmm14, %xmm3
	vmovsd	%xmm0, 184(%rsp)
	vmovsd	%xmm3, 176(%rsp)
.L184:
	vmovq	%rdi, %xmm7
	vaddsd	%xmm11, %xmm7, %xmm7
	vmovq	%rsi, %xmm3
	movl	356(%rsp), %esi
	vmovsd	%xmm7, 712(%rsp)
	vaddsd	%xmm10, %xmm3, %xmm7
	vmovq	%rcx, %xmm3
	vaddsd	680(%rsp), %xmm9, %xmm9
	vmovq	%xmm7, %r14
	vaddsd	616(%rsp), %xmm3, %xmm7
	vaddsd	648(%rsp), %xmm8, %xmm8
	vaddsd	584(%rsp), %xmm6, %xmm6
	vmovq	%xmm7, %r10
	vmovq	%rdx, %xmm7
	vaddsd	488(%rsp), %xmm7, %xmm3
	vmovsd	320(%rsp), %xmm7
	vaddsd	552(%rsp), %xmm5, %xmm5
	vmovq	%xmm3, %r8
	vmovq	%rax, %xmm3
	vaddsd	392(%rsp), %xmm3, %xmm2
	vaddsd	312(%rsp), %xmm7, %xmm3
	vmovsd	304(%rsp), %xmm7
	vaddsd	520(%rsp), %xmm4, %xmm4
	vmovq	%xmm3, %r13
	vaddsd	296(%rsp), %xmm7, %xmm3
	vaddsd	456(%rsp), %xmm13, %xmm0
	vaddsd	424(%rsp), %xmm1, %xmm1
	vmovsd	%xmm3, %xmm3, %xmm14
	vaddsd	288(%rsp), %xmm15, %xmm3
	vaddsd	328(%rsp), %xmm12, %xmm12
	vmovq	%xmm2, %r9
	vmovsd	%xmm3, %xmm3, %xmm15
	cmpl	%esi, 388(%rsp)
	jle	.L182
	movq	152(%rsp), %rcx
	movslq	340(%rsp), %rdx
	movq	%r10, 552(%rsp)
	leaq	(%rcx,%rdx,8), %rdi
	movslq	344(%rsp), %rdx
	movslq	356(%rsp), %rax
	leaq	(%rcx,%rdx,8), %rsi
	movslq	348(%rsp), %rdx
	movq	%rsi, %r10
	leaq	(%rcx,%rdx,8), %rdx
	movq	%rdx, 680(%rsp)
	movslq	352(%rsp), %rdx
	vmovsd	%xmm4, 648(%rsp)
	leaq	(%rcx,%rdx,8), %rdx
	movq	680(%rsp), %rsi
	vmovsd	%xmm5, 616(%rsp)
	vmovsd	%xmm2, 584(%rsp)
	movq	%rdx, %r9
	.p2align 4,,10
	.p2align 3
.L181:
	movq	376(%rsp), %rcx
	vmovsd	(%rdi,%rax,8), %xmm7
	vmovsd	(%rcx,%rax,8), %xmm11
	vmovsd	%xmm7, %xmm7, %xmm13
	vfmadd213sd	(%rbx), %xmm11, %xmm13
	vmovsd	(%r10,%rax,8), %xmm5
	movq	368(%rsp), %rcx
	movq	360(%rsp), %rdx
	vmovsd	(%rsi,%rax,8), %xmm4
	vmovsd	(%rdx,%rax,8), %xmm2
	vmovsd	(%r9,%rax,8), %xmm3
	vmovsd	(%rcx,%rax,8), %xmm10
	vmovsd	%xmm13, (%rbx)
	vmovsd	%xmm5, %xmm5, %xmm13
	vfmadd213sd	8(%rbx), %xmm11, %xmm13
	incq	%rax
	vmovsd	%xmm13, 8(%rbx)
	vmovsd	%xmm4, %xmm4, %xmm13
	vfmadd213sd	16(%rbx), %xmm11, %xmm13
	vfmadd213sd	24(%rbx), %xmm3, %xmm11
	vmovsd	%xmm13, 16(%rbx)
	vmovsd	%xmm11, 24(%rbx)
	vmovsd	%xmm7, %xmm7, %xmm11
	vfmadd213sd	(%r12), %xmm10, %xmm11
	vmovsd	%xmm11, (%r12)
	vmovsd	%xmm5, %xmm5, %xmm11
	vfmadd213sd	8(%r12), %xmm10, %xmm11
	vmovsd	%xmm11, 8(%r12)
	vmovsd	%xmm4, %xmm4, %xmm11
	vfmadd213sd	16(%r12), %xmm10, %xmm11
	vfmadd213sd	24(%r12), %xmm3, %xmm10
	vmovsd	%xmm11, 16(%r12)
	vmovsd	%xmm10, 24(%r12)
	vmovsd	%xmm7, %xmm7, %xmm10
	vfmadd213sd	(%r11), %xmm2, %xmm10
	vmovsd	%xmm10, (%r11)
	vmovsd	%xmm5, %xmm5, %xmm10
	vfmadd213sd	8(%r11), %xmm2, %xmm10
	vmovsd	%xmm10, 8(%r11)
	vmovsd	%xmm4, %xmm4, %xmm10
	vfmadd213sd	16(%r11), %xmm2, %xmm10
	vmovsd	%xmm10, 16(%r11)
	vmovsd	%xmm3, %xmm3, %xmm10
	vfmadd213sd	24(%r11), %xmm2, %xmm10
	vmovsd	%xmm10, 24(%r11)
	vfmadd213sd	(%r15), %xmm2, %xmm7
	vfmadd213sd	8(%r15), %xmm2, %xmm5
	vfmadd213sd	16(%r15), %xmm2, %xmm4
	vfmadd213sd	24(%r15), %xmm2, %xmm3
	vmovsd	%xmm7, (%r15)
	vmovsd	%xmm5, 8(%r15)
	vmovsd	%xmm4, 16(%r15)
	vmovsd	%xmm3, 24(%r15)
	cmpl	%eax, 388(%rsp)
	jg	.L181
	vmovsd	648(%rsp), %xmm4
	vmovsd	616(%rsp), %xmm5
	movq	584(%rsp), %r9
	movq	552(%rsp), %r10
.L182:
	vmovsd	208(%rsp), %xmm3
	vmovsd	200(%rsp), %xmm7
	vaddsd	16(%rbx), %xmm3, %xmm10
	vaddsd	8(%rbx), %xmm7, %xmm11
	vmovsd	192(%rsp), %xmm2
	vmovsd	216(%rsp), %xmm7
	vaddsd	(%rbx), %xmm2, %xmm13
	vaddsd	%xmm9, %xmm10, %xmm10
	vaddsd	24(%rbx), %xmm7, %xmm9
	vmovq	%r14, %xmm2
	vaddsd	712(%rsp), %xmm13, %xmm13
	vaddsd	%xmm2, %xmm11, %xmm11
	vaddsd	%xmm8, %xmm9, %xmm9
	vmovsd	232(%rsp), %xmm7
	vmovsd	%xmm13, (%rbx)
	vmovsd	%xmm11, 8(%rbx)
	vmovsd	%xmm10, 16(%rbx)
	vmovsd	%xmm9, 24(%rbx)
	vmovsd	224(%rsp), %xmm2
	vaddsd	8(%r12), %xmm7, %xmm7
	vaddsd	(%r12), %xmm2, %xmm8
	vmovsd	240(%rsp), %xmm2
	vaddsd	%xmm6, %xmm7, %xmm7
	vmovq	%r10, %xmm3
	vaddsd	16(%r12), %xmm2, %xmm6
	vaddsd	%xmm3, %xmm8, %xmm8
	vmovsd	248(%rsp), %xmm3
	vaddsd	%xmm5, %xmm6, %xmm6
	vaddsd	24(%r12), %xmm3, %xmm5
	vmovsd	%xmm7, 8(%r12)
	vmovsd	%xmm8, (%r12)
	vaddsd	%xmm4, %xmm5, %xmm5
	vmovsd	256(%rsp), %xmm4
	vmovsd	%xmm6, 16(%r12)
	vmovsd	%xmm5, 24(%r12)
	vaddsd	(%r11), %xmm4, %xmm4
	vmovq	%r8, %xmm7
	addq	$32, %rbx
	vaddsd	%xmm7, %xmm4, %xmm4
	addq	$32, %r12
	addq	$32, %r11
	vmovsd	%xmm4, -32(%r11)
	vmovsd	264(%rsp), %xmm4
	addq	$32, %r15
	vaddsd	-24(%r11), %xmm4, %xmm4
	vaddsd	%xmm0, %xmm4, %xmm0
	vmovsd	272(%rsp), %xmm4
	vmovsd	%xmm0, -24(%r11)
	vaddsd	-16(%r11), %xmm4, %xmm0
	movl	336(%rsp), %eax
	vaddsd	%xmm1, %xmm0, %xmm0
	vmovsd	280(%rsp), %xmm1
	addl	%eax, 340(%rsp)
	vmovsd	%xmm0, -16(%r11)
	vaddsd	-8(%r11), %xmm1, %xmm0
	vmovq	%r9, %xmm1
	addl	%eax, 344(%rsp)
	vaddsd	%xmm1, %xmm0, %xmm0
	vmovsd	168(%rsp), %xmm1
	addl	%eax, 348(%rsp)
	vmovsd	%xmm0, -8(%r11)
	vaddsd	-32(%r15), %xmm1, %xmm0
	vmovsd	184(%rsp), %xmm1
	addl	%eax, 352(%rsp)
	vaddsd	%xmm12, %xmm0, %xmm0
	vmovsd	%xmm0, -32(%r15)
	vaddsd	-24(%r15), %xmm1, %xmm0
	vmovq	%r13, %xmm1
	vaddsd	%xmm1, %xmm0, %xmm0
	vmovsd	160(%rsp), %xmm1
	vmovsd	%xmm0, -24(%r15)
	vaddsd	-16(%r15), %xmm1, %xmm0
	vmovsd	176(%rsp), %xmm1
	vaddsd	%xmm14, %xmm0, %xmm0
	vmovsd	%xmm0, -16(%r15)
	vaddsd	-8(%r15), %xmm1, %xmm0
	vaddsd	%xmm15, %xmm0, %xmm0
	vmovsd	%xmm0, -8(%r15)
	cmpq	%rbx, 144(%rsp)
	jne	.L179
.L180:
	movl	48(%rsp), %ebx
	cmpl	%ebx, 52(%rsp)
	jge	.L185
	movslq	72(%rsp), %rdi
	movq	-8(%rsp), %rax
	movq	64(%rsp), %rbx
	addq	%rdi, %rax
	leaq	(%rbx,%rax,8), %rcx
	movq	-16(%rsp), %rax
	movslq	96(%rsp), %rdx
	addq	%rdi, %rax
	leaq	8(%rbx,%rax,8), %rax
	movq	56(%rsp), %rbx
	movq	%rdx, 616(%rsp)
	leaq	(%rbx,%rdx,8), %r10
	movslq	384(%rsp), %rdx
	movq	%rax, 552(%rsp)
	leaq	(%rbx,%rdx,8), %r9
	movq	%rdx, 648(%rsp)
	movslq	100(%rsp), %rdx
	movslq	76(%rsp), %r12
	movslq	84(%rsp), %rax
	leaq	(%rbx,%rdx,8), %r8
	movq	%rdx, 680(%rsp)
	movslq	80(%rsp), %rdx
	movslq	92(%rsp), %r15
	subq	%rdi, %r12
	subq	%rdi, %rax
	subq	%rdi, %rdx
	movq	%r12, 488(%rsp)
	movq	%rax, 456(%rsp)
	leaq	(%rbx,%r15,8), %r11
	movq	%rdx, 520(%rsp)
	movq	%r15, 584(%rsp)
	movq	%rbx, %rdx
	movl	12(%rsp), %esi
	movl	96(%rsp), %r13d
	movl	100(%rsp), %r15d
	movl	92(%rsp), %r14d
	movq	152(%rsp), %rbx
	.p2align 4,,10
	.p2align 3
.L186:
	movl	388(%rsp), %edi
	testl	%edi, %edi
	jle	.L225
	cmpl	$2, 124(%rsp)
	jbe	.L206
	vxorpd	%xmm1, %xmm1, %xmm1
	movslq	%esi, %rax
	movq	104(%rsp), %r12
	leaq	(%rbx,%rax,8), %rdi
	vmovapd	%ymm1, %ymm4
	xorl	%eax, %eax
	vmovapd	%ymm1, %ymm3
	vmovapd	%ymm1, %ymm2
	.p2align 4,,10
	.p2align 3
.L188:
	vmovupd	(%rdi,%rax), %ymm0
	vfmadd231pd	(%r11,%rax), %ymm0, %ymm2
	vfmadd231pd	(%r10,%rax), %ymm0, %ymm3
	vfmadd231pd	(%r9,%rax), %ymm0, %ymm4
	vfmadd231pd	(%r8,%rax), %ymm0, %ymm1
	addq	$32, %rax
	cmpq	%r12, %rax
	jne	.L188
	vextractf128	$0x1, %ymm1, %xmm0
	vaddpd	%xmm1, %xmm0, %xmm0
	movl	120(%rsp), %eax
	vunpckhpd	%xmm0, %xmm0, %xmm1
	vaddpd	%xmm0, %xmm1, %xmm1
	vextractf128	$0x1, %ymm4, %xmm0
	vaddpd	%xmm4, %xmm0, %xmm0
	movl	%eax, %edi
	vunpckhpd	%xmm0, %xmm0, %xmm4
	vaddpd	%xmm0, %xmm4, %xmm4
	vextractf128	$0x1, %ymm3, %xmm0
	vaddpd	%xmm3, %xmm0, %xmm0
	vunpckhpd	%xmm0, %xmm0, %xmm3
	vaddpd	%xmm0, %xmm3, %xmm3
	vextractf128	$0x1, %ymm2, %xmm0
	vaddpd	%xmm2, %xmm0, %xmm0
	vunpckhpd	%xmm0, %xmm0, %xmm2
	vaddpd	%xmm0, %xmm2, %xmm2
	cmpl	%eax, 388(%rsp)
	je	.L193
.L187:
	movl	388(%rsp), %r12d
	subl	%edi, %r12d
	movl	%r12d, 712(%rsp)
	cmpl	$1, %r12d
	je	.L190
	movslq	%esi, %r12
	addq	%rdi, %r12
	vmovupd	(%rbx,%r12,8), %xmm0
	movq	584(%rsp), %r12
	addq	%rdi, %r12
	vmulpd	(%rdx,%r12,8), %xmm0, %xmm6
	movq	616(%rsp), %r12
	addq	%rdi, %r12
	vmulpd	(%rdx,%r12,8), %xmm0, %xmm7
	movq	648(%rsp), %r12
	addq	%rdi, %r12
	addq	680(%rsp), %rdi
	vmulpd	(%rdx,%r12,8), %xmm0, %xmm8
	vmulpd	(%rdx,%rdi,8), %xmm0, %xmm0
	movl	712(%rsp), %r12d
	movl	%r12d, %edi
	andl	$-2, %edi
	vunpckhpd	%xmm0, %xmm0, %xmm5
	vaddpd	%xmm0, %xmm5, %xmm0
	addl	%edi, %eax
	vaddsd	%xmm0, %xmm1, %xmm1
	vunpckhpd	%xmm8, %xmm8, %xmm0
	vaddpd	%xmm8, %xmm0, %xmm0
	vaddsd	%xmm0, %xmm4, %xmm4
	vunpckhpd	%xmm7, %xmm7, %xmm0
	vaddpd	%xmm7, %xmm0, %xmm0
	vaddsd	%xmm0, %xmm3, %xmm3
	vunpckhpd	%xmm6, %xmm6, %xmm0
	vaddpd	%xmm6, %xmm0, %xmm0
	vaddsd	%xmm0, %xmm2, %xmm2
	cmpl	%r12d, %edi
	je	.L193
.L190:
	leal	(%rsi,%rax), %edi
	movslq	%edi, %rdi
	vmovsd	(%rbx,%rdi,8), %xmm0
	leal	(%r14,%rax), %edi
	movslq	%edi, %rdi
	vfmadd231sd	(%rdx,%rdi,8), %xmm0, %xmm2
	leal	0(%r13,%rax), %edi
	movslq	%edi, %rdi
	vfmadd231sd	(%rdx,%rdi,8), %xmm0, %xmm3
	movl	384(%rsp), %edi
	addl	%eax, %edi
	addl	%r15d, %eax
	movslq	%edi, %rdi
	cltq
	vfmadd231sd	(%rdx,%rdi,8), %xmm0, %xmm4
	vfmadd231sd	(%rdx,%rax,8), %xmm0, %xmm1
.L193:
	vaddsd	(%rcx), %xmm2, %xmm2
	movq	488(%rsp), %rax
	addl	388(%rsp), %esi
	vmovsd	%xmm2, (%rcx)
	vaddsd	(%rcx,%rax,8), %xmm3, %xmm3
	vmovsd	%xmm3, (%rcx,%rax,8)
	movq	520(%rsp), %rax
	vaddsd	(%rcx,%rax,8), %xmm4, %xmm4
	vmovsd	%xmm4, (%rcx,%rax,8)
	movq	456(%rsp), %rax
	vaddsd	(%rcx,%rax,8), %xmm1, %xmm1
	vmovsd	%xmm1, (%rcx,%rax,8)
	addq	$8, %rcx
	cmpq	%rcx, 552(%rsp)
	jne	.L186
.L185:
	addl	$4, 88(%rsp)
	movl	16(%rsp), %eax
	addl	%eax, 72(%rsp)
	addl	%eax, 76(%rsp)
	addl	%eax, 80(%rsp)
	addl	%eax, 84(%rsp)
	movl	88(%rsp), %ebx
	movl	336(%rsp), %eax
	addl	%eax, 92(%rsp)
	addl	%eax, 96(%rsp)
	addl	%eax, 384(%rsp)
	addl	%eax, 100(%rsp)
	cmpl	%ebx, 36(%rsp)
	jg	.L176
	movq	56(%rsp), %r15
	movq	152(%rsp), %r14
.L175:
	addq	$64, 40(%rsp)
	movl	-24(%rsp), %ebx
	addl	%ebx, 32(%rsp)
	movq	40(%rsp), %rax
	cmpl	%eax, 52(%rsp)
	jg	.L194
.L195:
	movl	-72(%rsp), %ebx
	movl	-20(%rsp), %eax
	addl	%ebx, -32(%rsp)
	movl	-24(%rsp), %ebx
	addl	%ebx, -28(%rsp)
	cmpl	16(%rbp), %eax
	jg	.L172
.L173:
	movl	-20(%rsp), %eax
	cmpl	24(%rbp), %eax
	jge	.L222
	movl	48(%rsp), %edx
	testl	%edx, %edx
	jle	.L222
	movl	388(%rsp), %esi
	movl	%edx, %r13d
	imull	%eax, %r13d
	imull	%esi, %eax
	movl	%eax, %ebx
	leal	-1(%rsi), %eax
	movl	%eax, 680(%rsp)
	movl	%esi, %eax
	shrl	$2, %eax
	decl	%eax
	incq	%rax
	salq	$5, %rax
	movq	%rax, %r12
	movq	64(%rsp), %rax
	andl	$-4, %esi
	addq	$8, %rax
	movq	%rax, 616(%rsp)
	leal	-1(%rdx), %eax
	movq	%rax, 648(%rsp)
	movl	%esi, %r11d
.L169:
	movq	64(%rsp), %rsi
	movslq	%r13d, %rax
	leaq	(%rsi,%rax,8), %r9
	movq	616(%rsp), %rsi
	addq	648(%rsp), %rax
	leaq	(%rsi,%rax,8), %rax
	movq	%rax, 712(%rsp)
	movslq	%ebx, %r10
	leaq	(%r15,%r10,8), %rsi
	xorl	%ecx, %ecx
.L204:
	movl	388(%rsp), %eax
	vxorpd	%xmm0, %xmm0, %xmm0
	testl	%eax, %eax
	jle	.L203
	cmpl	$2, 680(%rsp)
	jbe	.L207
	movslq	%ecx, %rax
	leaq	(%r14,%rax,8), %rdx
	vxorpd	%xmm0, %xmm0, %xmm0
	xorl	%eax, %eax
.L197:
	vmovupd	(%rdx,%rax), %ymm4
	vfmadd231pd	(%rsi,%rax), %ymm4, %ymm0
	addq	$32, %rax
	cmpq	%rax, %r12
	jne	.L197
	vextractf128	$0x1, %ymm0, %xmm1
	vaddpd	%xmm0, %xmm1, %xmm1
	vunpckhpd	%xmm1, %xmm1, %xmm0
	vaddpd	%xmm1, %xmm0, %xmm0
	cmpl	%r11d, 388(%rsp)
	je	.L203
	movl	%r11d, %edx
	movl	%r11d, %eax
.L196:
	movl	388(%rsp), %r8d
	subl	%edx, %r8d
	cmpl	$1, %r8d
	je	.L199
	movslq	%ecx, %rdi
	addq	%rdx, %rdi
	addq	%r10, %rdx
	vmovupd	(%r15,%rdx,8), %xmm2
	movl	%r8d, %edx
	vmulpd	(%r14,%rdi,8), %xmm2, %xmm2
	andl	$-2, %edx
	addl	%edx, %eax
	vunpckhpd	%xmm2, %xmm2, %xmm1
	vaddpd	%xmm2, %xmm1, %xmm1
	vaddsd	%xmm1, %xmm0, %xmm0
	cmpl	%r8d, %edx
	je	.L203
.L199:
	leal	(%rcx,%rax), %edx
	movslq	%edx, %rdx
	vmovsd	(%r14,%rdx,8), %xmm4
	addl	%ebx, %eax
	cltq
	vfmadd231sd	(%r15,%rax,8), %xmm4, %xmm0
.L203:
	vmovsd	%xmm0, (%r9)
	addq	$8, %r9
	addl	388(%rsp), %ecx
	cmpq	712(%rsp), %r9
	jne	.L204
	incl	-20(%rsp)
	addl	48(%rsp), %r13d
	addl	388(%rsp), %ebx
	movl	-20(%rsp), %eax
	cmpl	%eax, 24(%rbp)
	jne	.L169
.L222:
	vzeroupper
	leaq	-40(%rbp), %rsp
	popq	%rbx
	popq	%r12
	popq	%r13
	popq	%r14
	popq	%r15
	popq	%rbp
	.cfi_remember_state
	.cfi_def_cfa 7, 8
	ret
	.p2align 4,,10
	.p2align 3
.L224:
	.cfi_restore_state
	vxorpd	%xmm11, %xmm11, %xmm11
	movq	$0x000000000, 160(%rsp)
	movq	$0x000000000, 168(%rsp)
	movq	$0x000000000, 176(%rsp)
	movq	$0x000000000, 184(%rsp)
	movq	$0x000000000, 192(%rsp)
	vmovq	%xmm11, %rdi
	vmovsd	%xmm11, 200(%rsp)
	vmovsd	%xmm11, %xmm11, %xmm10
	vmovq	%xmm11, %rsi
	vmovsd	%xmm11, 208(%rsp)
	vmovsd	%xmm11, 680(%rsp)
	vmovsd	%xmm11, %xmm11, %xmm9
	vmovsd	%xmm11, 216(%rsp)
	vmovsd	%xmm11, 648(%rsp)
	vmovsd	%xmm11, %xmm11, %xmm8
	vmovsd	%xmm11, 224(%rsp)
	vmovsd	%xmm11, 616(%rsp)
	vmovq	%xmm11, %rcx
	vmovsd	%xmm11, 232(%rsp)
	vmovsd	%xmm11, 584(%rsp)
	vmovsd	%xmm11, %xmm11, %xmm6
	vmovsd	%xmm11, 240(%rsp)
	vmovsd	%xmm11, 552(%rsp)
	vmovsd	%xmm11, %xmm11, %xmm5
	vmovsd	%xmm11, 248(%rsp)
	vmovsd	%xmm11, 520(%rsp)
	vmovsd	%xmm11, %xmm11, %xmm4
	vmovsd	%xmm11, 256(%rsp)
	vmovsd	%xmm11, 488(%rsp)
	vmovq	%xmm11, %rdx
	vmovsd	%xmm11, 264(%rsp)
	vmovsd	%xmm11, 456(%rsp)
	vmovsd	%xmm11, %xmm11, %xmm13
	vmovsd	%xmm11, 272(%rsp)
	vmovsd	%xmm11, 424(%rsp)
	vmovsd	%xmm11, %xmm11, %xmm1
	vmovsd	%xmm11, 280(%rsp)
	vmovsd	%xmm11, 288(%rsp)
	vmovsd	%xmm11, %xmm11, %xmm15
	vmovsd	%xmm11, 296(%rsp)
	vmovsd	%xmm11, 304(%rsp)
	vmovsd	%xmm11, 312(%rsp)
	vmovsd	%xmm11, 320(%rsp)
	vmovsd	%xmm11, 328(%rsp)
	vmovsd	%xmm11, %xmm11, %xmm12
	vmovsd	%xmm11, 392(%rsp)
	vmovq	%xmm11, %rax
	jmp	.L184
	.p2align 4,,10
	.p2align 3
.L225:
	vxorpd	%xmm1, %xmm1, %xmm1
	vmovsd	%xmm1, %xmm1, %xmm4
	vmovsd	%xmm1, %xmm1, %xmm3
	vmovsd	%xmm1, %xmm1, %xmm2
	jmp	.L193
.L206:
	vxorpd	%xmm1, %xmm1, %xmm1
	xorl	%edi, %edi
	xorl	%eax, %eax
	vmovsd	%xmm1, %xmm1, %xmm4
	vmovsd	%xmm1, %xmm1, %xmm3
	vmovsd	%xmm1, %xmm1, %xmm2
	jmp	.L187
.L207:
	xorl	%edx, %edx
	xorl	%eax, %eax
	vxorpd	%xmm0, %xmm0, %xmm0
	jmp	.L196
	.cfi_endproc
.LFE10944:
	.size	_Z19mul_mt_internal_f64PdS_S_iiiii, .-_Z19mul_mt_internal_f64PdS_S_iiiii
	.p2align 4
	.globl	_Z19mul_mt_f32_internalPfS_S_iiiii
	.type	_Z19mul_mt_f32_internalPfS_S_iiiii, @function
_Z19mul_mt_f32_internalPfS_S_iiiii:
.LFB10947:
	.cfi_startproc
	endbr64
	pushq	%rbp
	.cfi_def_cfa_offset 16
	.cfi_offset 6, -16
	movq	%rsp, %rbp
	.cfi_def_cfa_register 6
	pushq	%r15
	.cfi_offset 15, -24
	movq	%rdi, %r15
	pushq	%r14
	.cfi_offset 14, -32
	movl	%r8d, %r14d
	pushq	%r13
	pushq	%r12
	pushq	%rbx
	andq	$-32, %rsp
	subq	$840, %rsp
	.cfi_offset 13, -40
	.cfi_offset 12, -48
	.cfi_offset 3, -56
	movq	%rsi, 144(%rsp)
	movq	%rdx, 64(%rsp)
	movl	%r9d, 56(%rsp)
	movl	24(%rbp), %eax
	movl	24(%rbp), %edi
	subl	16(%rbp), %eax
	andl	$3, %eax
	subl	%eax, %edi
	movl	%edi, -20(%rsp)
	cmpl	16(%rbp), %edi
	jle	.L233
	movl	%r9d, %esi
	sall	$7, %esi
	movl	%esi, -72(%rsp)
	movl	%r8d, %esi
	sall	$7, %esi
	movl	%esi, -24(%rsp)
	movl	%r9d, %esi
	imull	16(%rbp), %esi
	leal	0(,%r9,4), %eax
	movl	%eax, 24(%rsp)
	movl	%esi, -64(%rsp)
	movl	16(%rbp), %esi
	movl	%r9d, %eax
	leal	1(%rsi), %edx
	movl	%r9d, %esi
	imull	%edx, %esi
	movl	%r9d, %ebx
	movl	%r8d, %r11d
	movl	%esi, -60(%rsp)
	movl	16(%rbp), %esi
	andl	$-32, %r11d
	leal	2(%rsi), %ecx
	imull	%ecx, %eax
	movl	%r9d, %edi
	andl	$-4, %edi
	movl	%eax, -56(%rsp)
	movl	16(%rbp), %eax
	imull	%r8d, %edx
	addl	$3, %eax
	imull	%eax, %ebx
	imull	%r8d, %eax
	imull	%r8d, %ecx
	movl	%ebx, -52(%rsp)
	movl	%eax, -36(%rsp)
	leal	(%r8,%r8), %eax
	movl	%eax, 32(%rsp)
	leal	-1(%r11), %eax
	shrl	$5, %eax
	salq	$5, %rax
	movq	%rax, 112(%rsp)
	movl	%edi, %eax
	imull	%r8d, %eax
	leal	0(,%r8,4), %ebx
	movl	%ebx, 152(%rsp)
	movl	%eax, 8(%rsp)
	leal	-1(%r8), %eax
	movl	%eax, 120(%rsp)
	movl	%r8d, %eax
	shrl	$3, %eax
	decl	%eax
	incq	%rax
	salq	$5, %rax
	movq	%rax, (%rsp)
	movl	16(%rbp), %ebx
	movl	%r8d, %eax
	andl	$-8, %eax
	imull	%r8d, %ebx
	movl	%eax, 100(%rsp)
	leal	-1(%r9), %eax
	movl	%edx, -44(%rsp)
	subl	%edi, %eax
	movslq	%edi, %rdx
	addq	%rdx, %rax
	movl	%edi, 60(%rsp)
	movl	%r11d, 544(%rsp)
	movl	%ebx, -48(%rsp)
	movl	%ecx, -40(%rsp)
	movl	$0, -28(%rsp)
	movl	$0, -32(%rsp)
	movq	%rdx, -8(%rsp)
	movq	%rax, -16(%rsp)
	movl	%r8d, 548(%rsp)
.L232:
	movl	16(%rbp), %eax
	subl	$-128, 16(%rbp)
	movl	-20(%rsp), %edi
	movl	%eax, -68(%rsp)
	addl	$127, %eax
	cmpl	%eax, %edi
	cmovg	16(%rbp), %edi
	movl	60(%rsp), %edx
	movl	%edi, 44(%rsp)
	testl	%edx, %edx
	jle	.L255
	movl	-32(%rsp), %eax
	movl	-64(%rsp), %edi
	movq	$0, 48(%rsp)
	addl	%eax, %edi
	movl	%edi, -104(%rsp)
	movl	-60(%rsp), %edi
	addl	%eax, %edi
	movl	%edi, -100(%rsp)
	movl	-56(%rsp), %edi
	addl	%eax, %edi
	movl	%edi, -96(%rsp)
	movl	-52(%rsp), %edi
	addl	%eax, %edi
	movl	%edi, -92(%rsp)
	movl	-28(%rsp), %eax
	movl	-48(%rsp), %edi
	addl	%eax, %edi
	movl	%edi, -88(%rsp)
	movl	-44(%rsp), %edi
	addl	%eax, %edi
	movl	%edi, -84(%rsp)
	movl	-40(%rsp), %edi
	addl	%eax, %edi
	movl	%edi, -80(%rsp)
	movl	-36(%rsp), %edi
	addl	%eax, %edi
	movl	548(%rsp), %eax
	movl	%edi, -76(%rsp)
	movl	%eax, 40(%rsp)
.L254:
	movq	48(%rsp), %rdi
	movl	60(%rsp), %esi
	movl	%edi, %eax
	leal	127(%rdi), %edx
	subl	$-128, %eax
	cmpl	%edx, %esi
	cmovle	%esi, %eax
	movl	-68(%rsp), %esi
	movl	%eax, 36(%rsp)
	cmpl	%esi, 44(%rsp)
	jle	.L235
	subl	%edi, %eax
	decl	%eax
	shrl	$2, %eax
	salq	$2, %rax
	movq	%rax, 16(%rsp)
	movl	-76(%rsp), %eax
	movl	32(%rsp), %edx
	movl	%eax, 164(%rsp)
	movl	-80(%rsp), %eax
	addl	40(%rsp), %edx
	movl	%eax, 160(%rsp)
	movl	-84(%rsp), %eax
	movl	%edi, 28(%rsp)
	movl	%eax, 156(%rsp)
	movl	-88(%rsp), %eax
	movl	%edx, 12(%rsp)
	movl	%eax, 124(%rsp)
	movl	-92(%rsp), %eax
	movl	%esi, 96(%rsp)
	movl	%eax, 84(%rsp)
	movl	-96(%rsp), %eax
	movq	%r15, 88(%rsp)
	movl	%eax, 80(%rsp)
	movl	-100(%rsp), %eax
	movl	%eax, 76(%rsp)
	movl	-104(%rsp), %eax
	movl	%eax, 72(%rsp)
	movq	144(%rsp), %rax
	subq	$-128, %rax
	movq	%rax, 104(%rsp)
	.p2align 4,,10
	.p2align 3
.L236:
	movl	28(%rsp), %edi
	cmpl	%edi, 36(%rsp)
	jle	.L240
	movq	48(%rsp), %rsi
	movslq	72(%rsp), %rcx
	movq	64(%rsp), %rdi
	movslq	76(%rsp), %rbx
	leaq	(%rsi,%rcx), %rax
	movslq	80(%rsp), %rdx
	leaq	(%rdi,%rax,4), %r12
	leaq	(%rbx,%rsi), %rax
	addq	%rsi, %rdx
	leaq	(%rdi,%rax,4), %rbx
	movslq	84(%rsp), %rax
	leaq	(%rdi,%rdx,4), %r15
	movl	40(%rsp), %edx
	addq	%rsi, %rax
	movl	32(%rsp), %r14d
	leaq	(%rdi,%rax,4), %r11
	movl	%edx, %eax
	subl	548(%rsp), %eax
	addl	%eax, %r14d
	movl	%eax, 504(%rsp)
	movq	16(%rsp), %rax
	movl	%r14d, 512(%rsp)
	addq	%rsi, %rax
	addq	%rcx, %rax
	leaq	16(%rdi,%rax,4), %rax
	movq	88(%rsp), %rsi
	movq	%rax, 136(%rsp)
	movslq	124(%rsp), %rax
	movl	%edx, 508(%rsp)
	leaq	(%rsi,%rax,4), %rax
	movq	%rax, 520(%rsp)
	movslq	156(%rsp), %rax
	leaq	(%rsi,%rax,4), %rax
	movq	%rax, 528(%rsp)
	movslq	160(%rsp), %rax
	leaq	(%rsi,%rax,4), %rax
	movq	%rax, 128(%rsp)
	movslq	164(%rsp), %rax
	leaq	(%rsi,%rax,4), %rax
	movq	%rax, 536(%rsp)
	movl	12(%rsp), %eax
	movl	%eax, 516(%rsp)
	.p2align 4,,10
	.p2align 3
.L239:
	movl	544(%rsp), %eax
	testl	%eax, %eax
	jle	.L278
	movq	144(%rsp), %rsi
	movslq	508(%rsp), %rcx
	movslq	504(%rsp), %rdx
	leaq	(%rsi,%rcx,4), %r10
	movslq	512(%rsp), %rcx
	leaq	(%rsi,%rdx,4), %rax
	leaq	(%rsi,%rcx,4), %r9
	movslq	516(%rsp), %rcx
	addq	112(%rsp), %rdx
	leaq	(%rsi,%rcx,4), %r8
	movq	104(%rsp), %rsi
	vxorps	%xmm3, %xmm3, %xmm3
	leaq	(%rsi,%rdx,4), %r13
	movq	536(%rsp), %rdi
	movq	128(%rsp), %rsi
	movq	528(%rsp), %rcx
	movq	520(%rsp), %rdx
	vmovaps	%ymm3, %ymm4
	vmovaps	%ymm3, %ymm5
	vmovaps	%ymm3, %ymm6
	vmovaps	%ymm3, 552(%rsp)
	vmovaps	%ymm3, 584(%rsp)
	vmovaps	%ymm3, 616(%rsp)
	vmovaps	%ymm3, 648(%rsp)
	vmovaps	%ymm3, 680(%rsp)
	vmovaps	%ymm3, 712(%rsp)
	vmovaps	%ymm3, 744(%rsp)
	vmovaps	%ymm3, 776(%rsp)
	vmovaps	%ymm3, 808(%rsp)
	vmovaps	%ymm3, %ymm9
	vmovaps	%ymm3, %ymm11
	vmovaps	%ymm3, %ymm10
	.p2align 4,,10
	.p2align 3
.L237:
	vmovups	(%r9), %ymm1
	vmovups	(%r8), %ymm13
	vmovups	(%rdx), %ymm0
	vmovups	32(%rdx), %ymm8
	vfmadd231ps	(%rax), %ymm0, %ymm10
	vfmadd231ps	(%r10), %ymm0, %ymm11
	vfmadd231ps	%ymm1, %ymm0, %ymm9
	vfmadd213ps	808(%rsp), %ymm13, %ymm0
	vmovups	64(%rdx), %ymm2
	vfmadd231ps	32(%rax), %ymm8, %ymm10
	vfmadd231ps	32(%r10), %ymm8, %ymm11
	vfmadd231ps	32(%r9), %ymm8, %ymm9
	vfmadd231ps	32(%r8), %ymm8, %ymm0
	vmovups	96(%rdx), %ymm7
	vfmadd231ps	64(%rax), %ymm2, %ymm10
	vfmadd231ps	64(%r10), %ymm2, %ymm11
	vfmadd231ps	64(%r9), %ymm2, %ymm9
	vfmadd132ps	64(%r8), %ymm0, %ymm2
	vmovaps	776(%rsp), %ymm12
	vfmadd231ps	96(%rax), %ymm7, %ymm10
	vfmadd231ps	96(%r10), %ymm7, %ymm11
	vfmadd231ps	96(%r9), %ymm7, %ymm9
	vfmadd132ps	96(%r8), %ymm2, %ymm7
	vmovups	(%rcx), %ymm0
	vmovaps	744(%rsp), %ymm8
	vfmadd231ps	(%rax), %ymm0, %ymm12
	vfmadd231ps	(%r10), %ymm0, %ymm8
	vmovaps	%ymm7, 808(%rsp)
	vmovaps	712(%rsp), %ymm7
	vmovups	32(%rcx), %ymm15
	vfmadd231ps	%ymm1, %ymm0, %ymm7
	vmovups	64(%rcx), %ymm2
	vmovups	96(%rcx), %ymm14
	vfmadd213ps	680(%rsp), %ymm13, %ymm0
	vfmadd231ps	32(%rax), %ymm15, %ymm12
	vfmadd231ps	32(%r10), %ymm15, %ymm8
	vfmadd231ps	32(%r9), %ymm15, %ymm7
	subq	$-128, %rax
	vfmadd231ps	32(%r8), %ymm15, %ymm0
	vfmadd231ps	-64(%rax), %ymm2, %ymm12
	vfmadd231ps	64(%r10), %ymm2, %ymm8
	vfmadd231ps	64(%r9), %ymm2, %ymm7
	vmovups	32(%rsi), %ymm15
	vfmadd132ps	64(%r8), %ymm0, %ymm2
	vfmadd231ps	-32(%rax), %ymm14, %ymm12
	vfmadd231ps	96(%r10), %ymm14, %ymm8
	vfmadd231ps	96(%r9), %ymm14, %ymm7
	vmovups	(%rsi), %ymm0
	vfmadd132ps	96(%r8), %ymm2, %ymm14
	vmovaps	%ymm12, 776(%rsp)
	vmovaps	%ymm8, 744(%rsp)
	vmovaps	648(%rsp), %ymm12
	vmovaps	616(%rsp), %ymm8
	vmovaps	%ymm7, 712(%rsp)
	vmovaps	584(%rsp), %ymm7
	vfmadd231ps	(%r10), %ymm0, %ymm8
	vfmadd231ps	-128(%rax), %ymm0, %ymm12
	vfmadd231ps	%ymm1, %ymm0, %ymm7
	vfmadd213ps	552(%rsp), %ymm13, %ymm0
	vmovups	64(%rsi), %ymm2
	vfmadd231ps	32(%r10), %ymm15, %ymm8
	vfmadd231ps	-96(%rax), %ymm15, %ymm12
	vfmadd231ps	32(%r9), %ymm15, %ymm7
	vfmadd231ps	32(%r8), %ymm15, %ymm0
	vmovaps	%ymm14, 680(%rsp)
	vfmadd231ps	64(%r10), %ymm2, %ymm8
	vmovups	96(%rsi), %ymm14
	vfmadd231ps	-64(%rax), %ymm2, %ymm12
	vfmadd231ps	64(%r9), %ymm2, %ymm7
	vfmadd132ps	64(%r8), %ymm0, %ymm2
	vfmadd231ps	96(%r10), %ymm14, %ymm8
	vmovups	64(%rdi), %ymm0
	vfmadd231ps	-32(%rax), %ymm14, %ymm12
	vfmadd231ps	96(%r9), %ymm14, %ymm7
	vfmadd132ps	96(%r8), %ymm2, %ymm14
	vmovups	32(%rdi), %ymm2
	vmovaps	%ymm8, 616(%rsp)
	vmovups	96(%rdi), %ymm8
	vmovaps	%ymm7, 584(%rsp)
	vmovups	(%rdi), %ymm7
	vmovaps	%ymm12, 648(%rsp)
	vfmadd231ps	-128(%rax), %ymm7, %ymm6
	vfmadd231ps	(%r10), %ymm7, %ymm5
	vfmadd132ps	%ymm7, %ymm4, %ymm1
	vfmadd132ps	%ymm13, %ymm3, %ymm7
	vmovaps	%ymm14, 552(%rsp)
	vfmadd231ps	-96(%rax), %ymm2, %ymm6
	vfmadd231ps	32(%r10), %ymm2, %ymm5
	vfmadd231ps	32(%r9), %ymm2, %ymm1
	vfmadd132ps	32(%r8), %ymm7, %ymm2
	subq	$-128, %r10
	vmovaps	%ymm6, %ymm3
	vfmadd231ps	-64(%rax), %ymm0, %ymm3
	vmovaps	%ymm5, %ymm4
	vfmadd231ps	-64(%r10), %ymm0, %ymm4
	vfmadd231ps	64(%r9), %ymm0, %ymm1
	vfmadd132ps	64(%r8), %ymm2, %ymm0
	vmovaps	%ymm3, %ymm6
	vmovaps	%ymm8, %ymm3
	vmovaps	%ymm4, %ymm5
	vmovaps	%ymm1, %ymm4
	vfmadd231ps	96(%r9), %ymm8, %ymm4
	vfmadd132ps	96(%r8), %ymm0, %ymm3
	vfmadd231ps	-32(%rax), %ymm8, %ymm6
	vfmadd231ps	-32(%r10), %ymm8, %ymm5
	subq	$-128, %r9
	subq	$-128, %r8
	subq	$-128, %rdx
	subq	$-128, %rcx
	subq	$-128, %rsi
	subq	$-128, %rdi
	cmpq	%rax, %r13
	jne	.L237
	vshufps	$85, %xmm5, %xmm5, %xmm2
	vaddss	%xmm5, %xmm2, %xmm1
	vextractps	$3, %xmm4, 444(%rsp)
	vmovaps	%xmm4, %xmm2
	vmovd	%xmm1, %r9d
	vextractf128	$0x1, %ymm4, %xmm1
	vmovss	%xmm1, 448(%rsp)
	vextractps	$3, %xmm1, 456(%rsp)
	vextractps	$2, %xmm1, 464(%rsp)
	vextractps	$1, %xmm1, 452(%rsp)
	vextractf128	$0x1, %ymm3, %xmm1
	vmovss	%xmm1, 424(%rsp)
	vextractps	$2, %xmm4, 440(%rsp)
	vextractps	$3, %xmm1, 436(%rsp)
	vextractps	$2, %xmm1, 432(%rsp)
	vextractps	$1, %xmm1, 428(%rsp)
	vextractps	$3, %xmm3, 420(%rsp)
	vmovaps	%xmm3, %xmm1
	vextractps	$2, %xmm3, 416(%rsp)
	vshufps	$85, %xmm6, %xmm6, %xmm3
	vaddss	%xmm3, %xmm6, %xmm4
	vextractf128	$0x1, %ymm5, %xmm0
	vshufps	$85, %xmm14, %xmm14, %xmm3
	vmovss	%xmm4, 396(%rsp)
	vaddss	%xmm3, %xmm14, %xmm4
	vmovss	%xmm0, 408(%rsp)
	vextractps	$1, %xmm0, 476(%rsp)
	vextractps	$2, %xmm0, 404(%rsp)
	vextractps	$3, %xmm0, 400(%rsp)
	vextractf128	$0x1, %ymm6, %xmm0
	vmovss	%xmm0, 384(%rsp)
	vextractps	$1, %xmm0, 380(%rsp)
	vextractps	$2, %xmm0, 376(%rsp)
	vextractps	$3, %xmm0, 372(%rsp)
	vextractf128	$0x1, %ymm14, %xmm0
	vmovss	%xmm4, 368(%rsp)
	vmovss	%xmm0, 356(%rsp)
	vextractps	$2, %xmm5, 480(%rsp)
	vextractps	$3, %xmm5, 412(%rsp)
	vextractps	$2, %xmm14, 364(%rsp)
	vextractps	$3, %xmm14, 360(%rsp)
	vextractps	$1, %xmm0, 352(%rsp)
	vextractps	$2, %xmm0, 348(%rsp)
	vextractps	$3, %xmm0, 344(%rsp)
	vextractps	$2, %xmm6, 392(%rsp)
	vextractps	$3, %xmm6, 388(%rsp)
	vmovaps	584(%rsp), %ymm6
	vmovaps	712(%rsp), %ymm7
	vshufps	$85, %xmm6, %xmm6, %xmm3
	vaddss	%xmm3, %xmm6, %xmm4
	vextractf128	$0x1, %ymm6, %xmm0
	vextractps	$2, %xmm6, 336(%rsp)
	vextractps	$3, %xmm6, 332(%rsp)
	vmovaps	616(%rsp), %ymm6
	vmovss	%xmm4, 340(%rsp)
	vshufps	$85, %xmm6, %xmm6, %xmm3
	vaddss	%xmm3, %xmm6, %xmm4
	vshufps	$85, %xmm12, %xmm12, %xmm3
	vmovss	%xmm0, 328(%rsp)
	vmovss	%xmm4, 316(%rsp)
	vaddss	%xmm3, %xmm12, %xmm4
	vextractps	$1, %xmm0, 472(%rsp)
	vextractps	$2, %xmm0, 324(%rsp)
	vextractps	$3, %xmm0, 320(%rsp)
	vextractps	$2, %xmm6, 312(%rsp)
	vextractf128	$0x1, %ymm6, %xmm0
	vextractps	$3, %xmm6, 308(%rsp)
	vmovaps	680(%rsp), %ymm6
	vmovss	%xmm4, 292(%rsp)
	vshufps	$85, %xmm6, %xmm6, %xmm4
	vaddss	%xmm4, %xmm6, %xmm4
	vextractf128	$0x1, %ymm12, %xmm3
	vshufps	$85, %xmm7, %xmm7, %xmm5
	vmovss	%xmm3, 284(%rsp)
	vmovss	%xmm4, 272(%rsp)
	vextractps	$2, %xmm3, 280(%rsp)
	vextractf128	$0x1, %ymm6, %xmm4
	vextractps	$3, %xmm3, 276(%rsp)
	vextractps	$2, %xmm6, 268(%rsp)
	vextractps	$1, %xmm3, %r8d
	vshufps	$255, %xmm6, %xmm6, %xmm3
	vaddss	%xmm5, %xmm7, %xmm6
	vextractf128	$0x1, %ymm7, %xmm5
	vmovss	%xmm0, 304(%rsp)
	vmovss	%xmm4, 264(%rsp)
	vmovss	%xmm6, 712(%rsp)
	vmovss	%xmm5, 244(%rsp)
	vextractps	$1, %xmm0, 468(%rsp)
	vextractps	$2, %xmm0, 300(%rsp)
	vextractps	$3, %xmm0, 296(%rsp)
	vextractps	$2, %xmm12, 288(%rsp)
	vextractps	$1, %xmm4, 260(%rsp)
	vextractps	$2, %xmm4, 256(%rsp)
	vextractps	$3, %xmm4, 252(%rsp)
	vextractps	$2, %xmm7, 248(%rsp)
	vextractps	$1, %xmm5, 240(%rsp)
	vmovaps	744(%rsp), %ymm15
	vextractps	$2, %xmm5, 236(%rsp)
	vshufps	$85, %xmm15, %xmm15, %xmm6
	vaddss	%xmm6, %xmm15, %xmm6
	vextractps	$3, %xmm5, 232(%rsp)
	vextractps	$2, %xmm15, 648(%rsp)
	vmovss	%xmm6, 744(%rsp)
	vshufps	$255, %xmm15, %xmm15, %xmm5
	vextractf128	$0x1, %ymm15, %xmm6
	vmovaps	776(%rsp), %ymm15
	vshufps	$255, %xmm7, %xmm7, %xmm4
	vshufps	$85, %xmm15, %xmm15, %xmm7
	vaddss	%xmm7, %xmm15, %xmm7
	vmovss	%xmm6, 228(%rsp)
	vextractps	$1, %xmm6, 680(%rsp)
	vmovss	%xmm7, 776(%rsp)
	vextractps	$2, %xmm6, 224(%rsp)
	vextractf128	$0x1, %ymm15, %xmm7
	vextractps	$3, %xmm6, 220(%rsp)
	vextractps	$2, %xmm15, 584(%rsp)
	vshufps	$255, %xmm15, %xmm15, %xmm6
	vmovaps	808(%rsp), %ymm15
	vshufps	$85, %xmm9, %xmm9, %xmm13
	vshufps	$85, %xmm15, %xmm15, %xmm8
	vmovss	%xmm7, 216(%rsp)
	vaddss	%xmm8, %xmm15, %xmm14
	vextractps	$1, %xmm7, 616(%rsp)
	vextractf128	$0x1, %ymm15, %xmm8
	vextractps	$2, %xmm7, 212(%rsp)
	vextractps	$3, %xmm7, 208(%rsp)
	vextractps	$2, %xmm15, 500(%rsp)
	vshufps	$255, %xmm15, %xmm15, %xmm7
	vaddss	%xmm13, %xmm9, %xmm15
	vmovss	%xmm8, 204(%rsp)
	vextractps	$1, %xmm8, 552(%rsp)
	vextractps	$2, %xmm8, 200(%rsp)
	vextractps	$3, %xmm8, 196(%rsp)
	vextractps	$2, %xmm9, 192(%rsp)
	vshufps	$255, %xmm9, %xmm9, %xmm8
	vextractf128	$0x1, %ymm9, %xmm9
	vextractf128	$0x1, %ymm10, %xmm13
	vmovss	%xmm9, 188(%rsp)
	vextractps	$1, %xmm9, %edx
	vextractps	$2, %xmm9, %ecx
	vextractps	$3, %xmm9, 184(%rsp)
	vextractf128	$0x1, %ymm11, %xmm9
	vmovss	%xmm14, 808(%rsp)
	vmovss	%xmm15, 492(%rsp)
	vextractps	$3, %xmm11, %eax
	vextractps	$1, %xmm9, %edi
	vextractps	$2, %xmm9, %esi
	vextractps	$3, %xmm10, %r10d
	vextractps	$1, %xmm13, %r13d
	vextractps	$2, %xmm13, %r14d
	vshufps	$255, %xmm12, %xmm12, %xmm0
	vextractps	$3, %xmm9, 180(%rsp)
	vshufps	$85, %xmm11, %xmm11, %xmm12
	vextractps	$3, %xmm13, 176(%rsp)
	vaddss	%xmm12, %xmm11, %xmm14
	vunpckhps	%xmm11, %xmm11, %xmm12
	vmovaps	%xmm9, %xmm11
	vshufps	$85, %xmm10, %xmm10, %xmm9
	vaddss	%xmm9, %xmm10, %xmm15
	vunpckhps	%xmm10, %xmm10, %xmm9
	vmovaps	%xmm13, %xmm10
	vshufps	$85, %xmm1, %xmm1, %xmm13
	vaddss	%xmm1, %xmm13, %xmm1
	vmovss	%xmm1, 172(%rsp)
	vshufps	$85, %xmm2, %xmm2, %xmm1
	vaddss	%xmm2, %xmm1, %xmm1
	vmovss	%xmm1, 168(%rsp)
.L244:
	vmovd	%r14d, %xmm2
	vmovd	%r13d, %xmm1
	vaddss	%xmm2, %xmm1, %xmm1
	vmovd	%esi, %xmm2
	vaddss	%xmm9, %xmm15, %xmm15
	vmovss	%xmm1, 484(%rsp)
	vmovd	%r10d, %xmm1
	vaddss	%xmm10, %xmm1, %xmm13
	vmovd	%edi, %xmm1
	vaddss	%xmm2, %xmm1, %xmm1
	vmovd	%ecx, %xmm2
	vaddss	188(%rsp), %xmm8, %xmm8
	vmovss	%xmm1, 488(%rsp)
	vmovd	%eax, %xmm1
	vaddss	%xmm11, %xmm1, %xmm9
	vmovd	%edx, %xmm1
	vaddss	%xmm2, %xmm1, %xmm1
	vaddss	204(%rsp), %xmm7, %xmm7
	vaddss	216(%rsp), %xmm6, %xmm6
	vmovss	%xmm1, 496(%rsp)
	vmovss	492(%rsp), %xmm1
	vaddss	228(%rsp), %xmm5, %xmm5
	vaddss	192(%rsp), %xmm1, %xmm1
	vaddss	%xmm13, %xmm15, %xmm13
	vaddss	%xmm12, %xmm14, %xmm14
	vaddss	%xmm8, %xmm1, %xmm1
	vaddss	%xmm9, %xmm14, %xmm14
	vmovss	%xmm1, 492(%rsp)
	vmovss	552(%rsp), %xmm1
	vaddss	200(%rsp), %xmm1, %xmm1
	vmovss	%xmm1, 552(%rsp)
	vmovss	808(%rsp), %xmm1
	vaddss	500(%rsp), %xmm1, %xmm1
	vaddss	%xmm7, %xmm1, %xmm1
	vmovss	%xmm1, 500(%rsp)
	vmovss	616(%rsp), %xmm1
	vaddss	212(%rsp), %xmm1, %xmm1
	vmovss	%xmm1, 616(%rsp)
	vmovss	776(%rsp), %xmm1
	vaddss	584(%rsp), %xmm1, %xmm1
	vaddss	%xmm6, %xmm1, %xmm6
	vmovss	%xmm6, 584(%rsp)
	vmovss	680(%rsp), %xmm6
	vaddss	224(%rsp), %xmm6, %xmm6
	vmovss	%xmm6, 680(%rsp)
	vmovss	744(%rsp), %xmm6
	vaddss	648(%rsp), %xmm6, %xmm1
	vaddss	%xmm5, %xmm1, %xmm5
	vmovss	%xmm5, 648(%rsp)
	vmovss	240(%rsp), %xmm5
	vaddss	236(%rsp), %xmm5, %xmm5
	vmovss	%xmm5, 744(%rsp)
	vmovss	712(%rsp), %xmm5
	vaddss	248(%rsp), %xmm5, %xmm1
	vaddss	244(%rsp), %xmm4, %xmm4
	vaddss	264(%rsp), %xmm3, %xmm3
	vaddss	284(%rsp), %xmm0, %xmm0
	vaddss	%xmm4, %xmm1, %xmm5
	vmovss	%xmm5, 712(%rsp)
	vmovss	260(%rsp), %xmm5
	vaddss	256(%rsp), %xmm5, %xmm5
	vmovss	%xmm5, 808(%rsp)
	vmovss	272(%rsp), %xmm5
	vaddss	268(%rsp), %xmm5, %xmm1
	vaddss	%xmm3, %xmm1, %xmm5
	vmovss	472(%rsp), %xmm3
	vmovss	%xmm5, 776(%rsp)
	vmovd	%r8d, %xmm5
	vaddss	280(%rsp), %xmm5, %xmm5
	vmovd	%xmm5, %r8d
	vmovss	292(%rsp), %xmm5
	vaddss	288(%rsp), %xmm5, %xmm1
	vaddss	%xmm0, %xmm1, %xmm6
	vmovaps	%xmm6, %xmm15
	vmovss	468(%rsp), %xmm6
	vaddss	300(%rsp), %xmm6, %xmm5
	vmovss	316(%rsp), %xmm6
	vaddss	312(%rsp), %xmm6, %xmm9
	vmovss	308(%rsp), %xmm6
	vmovss	%xmm5, 468(%rsp)
	vaddss	304(%rsp), %xmm6, %xmm0
	vmovss	332(%rsp), %xmm5
	vaddss	324(%rsp), %xmm3, %xmm6
	vaddss	%xmm0, %xmm9, %xmm9
	vaddss	328(%rsp), %xmm5, %xmm0
	vmovss	352(%rsp), %xmm5
	vmovss	%xmm6, 472(%rsp)
	vaddss	348(%rsp), %xmm5, %xmm3
	vmovss	340(%rsp), %xmm6
	vmovd	%xmm3, %r14d
	vmovss	368(%rsp), %xmm3
	vaddss	336(%rsp), %xmm6, %xmm7
	vaddss	364(%rsp), %xmm3, %xmm6
	vmovss	360(%rsp), %xmm3
	vmovss	380(%rsp), %xmm5
	vaddss	%xmm0, %xmm7, %xmm7
	vaddss	356(%rsp), %xmm3, %xmm0
	vaddss	376(%rsp), %xmm5, %xmm3
	vmovss	396(%rsp), %xmm5
	vaddss	%xmm0, %xmm6, %xmm6
	vaddss	392(%rsp), %xmm5, %xmm4
	vmovd	%xmm3, %r10d
	vmovss	388(%rsp), %xmm5
	vmovss	476(%rsp), %xmm3
	vaddss	384(%rsp), %xmm5, %xmm0
	vaddss	404(%rsp), %xmm3, %xmm5
	vmovd	%r9d, %xmm3
	vaddss	480(%rsp), %xmm3, %xmm1
	vmovss	412(%rsp), %xmm3
	vaddss	%xmm0, %xmm4, %xmm4
	vaddss	408(%rsp), %xmm3, %xmm0
	vmovss	%xmm5, 476(%rsp)
	movl	544(%rsp), %edi
	vaddss	%xmm0, %xmm1, %xmm3
	vmovss	%xmm3, 480(%rsp)
	vmovss	444(%rsp), %xmm3
	vaddss	440(%rsp), %xmm3, %xmm5
	vmovss	452(%rsp), %xmm3
	vmovd	%xmm5, %r13d
	vaddss	448(%rsp), %xmm3, %xmm8
	vmovss	420(%rsp), %xmm5
	vmovss	456(%rsp), %xmm3
	vaddss	464(%rsp), %xmm3, %xmm0
	vaddss	416(%rsp), %xmm5, %xmm3
	vmovss	428(%rsp), %xmm5
	vaddss	%xmm0, %xmm8, %xmm8
	vmovd	%xmm3, %r9d
	vmovss	436(%rsp), %xmm3
	vaddss	424(%rsp), %xmm5, %xmm5
	vaddss	432(%rsp), %xmm3, %xmm0
	vaddss	%xmm0, %xmm5, %xmm5
	cmpl	%edi, 548(%rsp)
	jle	.L242
	movq	144(%rsp), %rcx
	movslq	504(%rsp), %rdx
	movl	%r8d, 452(%rsp)
	leaq	(%rcx,%rdx,4), %rdi
	movslq	508(%rsp), %rdx
	movslq	544(%rsp), %rax
	leaq	(%rcx,%rdx,4), %rsi
	movslq	512(%rsp), %rdx
	vmovss	%xmm13, 464(%rsp)
	leaq	(%rcx,%rdx,4), %rdx
	movq	%rdx, 456(%rsp)
	movslq	516(%rsp), %rdx
	movq	456(%rsp), %r8
	leaq	(%rcx,%rdx,4), %rdx
	.p2align 4,,10
	.p2align 3
.L241:
	movq	520(%rsp), %rcx
	vmovss	(%rdi,%rax,4), %xmm10
	vmovss	(%rcx,%rax,4), %xmm12
	vmovaps	%xmm10, %xmm13
	vfmadd213ss	(%r12), %xmm12, %xmm13
	movq	528(%rsp), %rcx
	vmovss	(%rsi,%rax,4), %xmm3
	vmovss	(%rcx,%rax,4), %xmm11
	movq	536(%rsp), %rcx
	vmovss	(%r8,%rax,4), %xmm2
	vmovss	(%rcx,%rax,4), %xmm0
	vmovss	(%rdx,%rax,4), %xmm1
	vmovss	%xmm13, (%r12)
	vmovaps	%xmm3, %xmm13
	vfmadd213ss	4(%r12), %xmm12, %xmm13
	incq	%rax
	vmovss	%xmm13, 4(%r12)
	vmovaps	%xmm2, %xmm13
	vfmadd213ss	8(%r12), %xmm12, %xmm13
	vfmadd213ss	12(%r12), %xmm1, %xmm12
	vmovss	%xmm13, 8(%r12)
	vmovss	%xmm12, 12(%r12)
	vmovaps	%xmm10, %xmm12
	vfmadd213ss	(%rbx), %xmm11, %xmm12
	vmovss	%xmm12, (%rbx)
	vmovaps	%xmm3, %xmm12
	vfmadd213ss	4(%rbx), %xmm11, %xmm12
	vmovss	%xmm12, 4(%rbx)
	vmovaps	%xmm2, %xmm12
	vfmadd213ss	8(%rbx), %xmm11, %xmm12
	vfmadd213ss	12(%rbx), %xmm1, %xmm11
	vmovss	%xmm12, 8(%rbx)
	vmovss	%xmm11, 12(%rbx)
	vmovaps	%xmm10, %xmm11
	vfmadd213ss	(%r15), %xmm0, %xmm11
	vmovss	%xmm11, (%r15)
	vmovaps	%xmm3, %xmm11
	vfmadd213ss	4(%r15), %xmm0, %xmm11
	vmovss	%xmm11, 4(%r15)
	vmovaps	%xmm2, %xmm11
	vfmadd213ss	8(%r15), %xmm0, %xmm11
	vmovss	%xmm11, 8(%r15)
	vmovaps	%xmm1, %xmm11
	vfmadd213ss	12(%r15), %xmm0, %xmm11
	vmovss	%xmm11, 12(%r15)
	vfmadd213ss	(%r11), %xmm0, %xmm10
	vfmadd213ss	4(%r11), %xmm0, %xmm3
	vfmadd213ss	8(%r11), %xmm0, %xmm2
	vfmadd213ss	12(%r11), %xmm0, %xmm1
	vmovss	%xmm10, (%r11)
	vmovss	%xmm3, 4(%r11)
	vmovss	%xmm2, 8(%r11)
	vmovss	%xmm1, 12(%r11)
	cmpl	%eax, 548(%rsp)
	jg	.L241
	vmovss	464(%rsp), %xmm13
	movl	452(%rsp), %r8d
.L242:
	vmovss	176(%rsp), %xmm3
	vmovss	232(%rsp), %xmm1
	vaddss	(%r12), %xmm3, %xmm0
	vmovss	180(%rsp), %xmm3
	addq	$16, %r12
	vaddss	484(%rsp), %xmm0, %xmm0
	addq	$16, %rbx
	addq	$16, %r15
	vaddss	%xmm13, %xmm0, %xmm0
	addq	$16, %r11
	vmovss	%xmm0, -16(%r12)
	vaddss	-12(%r12), %xmm3, %xmm0
	vmovss	184(%rsp), %xmm3
	vaddss	488(%rsp), %xmm0, %xmm0
	vaddss	%xmm14, %xmm0, %xmm0
	vmovss	%xmm0, -12(%r12)
	vaddss	-8(%r12), %xmm3, %xmm0
	vmovss	196(%rsp), %xmm3
	vaddss	496(%rsp), %xmm0, %xmm0
	vaddss	492(%rsp), %xmm0, %xmm0
	vmovss	%xmm0, -8(%r12)
	vaddss	-4(%r12), %xmm3, %xmm0
	vmovss	208(%rsp), %xmm3
	vaddss	552(%rsp), %xmm0, %xmm0
	vaddss	500(%rsp), %xmm0, %xmm0
	vmovss	%xmm0, -4(%r12)
	vaddss	-16(%rbx), %xmm3, %xmm0
	vmovss	220(%rsp), %xmm3
	vaddss	616(%rsp), %xmm0, %xmm0
	vaddss	584(%rsp), %xmm0, %xmm0
	vmovss	%xmm0, -16(%rbx)
	vaddss	-12(%rbx), %xmm3, %xmm0
	vaddss	680(%rsp), %xmm0, %xmm0
	vaddss	648(%rsp), %xmm0, %xmm0
	vmovss	%xmm0, -12(%rbx)
	vaddss	-8(%rbx), %xmm1, %xmm0
	vaddss	744(%rsp), %xmm0, %xmm0
	vaddss	712(%rsp), %xmm0, %xmm0
	vmovss	%xmm0, -8(%rbx)
	vmovss	252(%rsp), %xmm3
	vmovss	276(%rsp), %xmm1
	vaddss	-4(%rbx), %xmm3, %xmm0
	vmovd	%r8d, %xmm3
	vaddss	808(%rsp), %xmm0, %xmm0
	vaddss	776(%rsp), %xmm0, %xmm0
	vmovss	%xmm0, -4(%rbx)
	vaddss	-16(%r15), %xmm1, %xmm0
	vmovd	%r14d, %xmm1
	vaddss	%xmm3, %xmm0, %xmm0
	vmovss	296(%rsp), %xmm3
	vaddss	%xmm15, %xmm0, %xmm0
	vmovss	%xmm0, -16(%r15)
	vaddss	-12(%r15), %xmm3, %xmm0
	vmovss	320(%rsp), %xmm3
	vaddss	468(%rsp), %xmm0, %xmm0
	vaddss	%xmm9, %xmm0, %xmm0
	vmovss	%xmm0, -12(%r15)
	vaddss	-8(%r15), %xmm3, %xmm0
	vmovss	344(%rsp), %xmm3
	vaddss	472(%rsp), %xmm0, %xmm0
	vaddss	%xmm7, %xmm0, %xmm0
	vmovss	%xmm0, -8(%r15)
	vaddss	-4(%r15), %xmm3, %xmm0
	vaddss	%xmm1, %xmm0, %xmm0
	vaddss	%xmm6, %xmm0, %xmm0
	vmovss	372(%rsp), %xmm6
	vmovss	%xmm0, -4(%r15)
	vaddss	-16(%r11), %xmm6, %xmm0
	vmovd	%r10d, %xmm6
	vaddss	%xmm6, %xmm0, %xmm0
	vmovss	400(%rsp), %xmm6
	vaddss	%xmm4, %xmm0, %xmm0
	vmovd	%r13d, %xmm4
	vmovss	%xmm0, -16(%r11)
	vaddss	-12(%r11), %xmm6, %xmm0
	vmovss	168(%rsp), %xmm6
	vaddss	476(%rsp), %xmm0, %xmm0
	vaddss	480(%rsp), %xmm0, %xmm0
	vmovss	%xmm0, -12(%r11)
	vaddss	-8(%r11), %xmm6, %xmm0
	vmovss	172(%rsp), %xmm6
	vaddss	%xmm4, %xmm0, %xmm0
	vmovd	%r9d, %xmm4
	vaddss	%xmm8, %xmm0, %xmm0
	vmovss	%xmm0, -8(%r11)
	vaddss	-4(%r11), %xmm6, %xmm0
	vaddss	%xmm4, %xmm0, %xmm0
	vaddss	%xmm5, %xmm0, %xmm0
	vmovss	%xmm0, -4(%r11)
	movl	152(%rsp), %eax
	addl	%eax, 504(%rsp)
	addl	%eax, 508(%rsp)
	addl	%eax, 512(%rsp)
	addl	%eax, 516(%rsp)
	cmpq	%r12, 136(%rsp)
	jne	.L239
.L240:
	movl	56(%rsp), %edi
	cmpl	%edi, 60(%rsp)
	jge	.L245
	movslq	72(%rsp), %rdi
	movq	-8(%rsp), %rax
	movq	64(%rsp), %rsi
	addq	%rdi, %rax
	leaq	(%rsi,%rax,4), %rcx
	movq	-16(%rsp), %rax
	movslq	156(%rsp), %rdx
	addq	%rdi, %rax
	leaq	4(%rsi,%rax,4), %rax
	movq	%rax, 680(%rsp)
	movq	88(%rsp), %rax
	movslq	124(%rsp), %r15
	movslq	160(%rsp), %rsi
	leaq	(%rax,%rdx,4), %r10
	movq	%rdx, 744(%rsp)
	movslq	164(%rsp), %rdx
	leaq	(%rax,%r15,4), %r11
	leaq	(%rax,%rsi,4), %r9
	leaq	(%rax,%rdx,4), %r8
	movslq	84(%rsp), %rax
	movq	%rdx, 808(%rsp)
	movslq	76(%rsp), %rbx
	movslq	80(%rsp), %rdx
	movq	%rax, %r14
	subq	%rdi, %rbx
	subq	%rdi, %rdx
	subq	%rdi, %r14
	movq	%rbx, 648(%rsp)
	movq	%rdx, 616(%rsp)
	movq	%r14, 584(%rsp)
	movq	%rsi, 776(%rsp)
	movq	%r15, 712(%rsp)
	movl	8(%rsp), %esi
	movq	(%rsp), %r12
	movq	88(%rsp), %rdi
	movq	144(%rsp), %r15
	movl	548(%rsp), %r13d
	.p2align 4,,10
	.p2align 3
.L246:
	testl	%r13d, %r13d
	jle	.L279
	cmpl	$6, 120(%rsp)
	jbe	.L266
	vxorps	%xmm4, %xmm4, %xmm4
	movslq	%esi, %rax
	leaq	(%r15,%rax,4), %rdx
	vmovaps	%ymm4, %ymm3
	xorl	%eax, %eax
	vmovaps	%ymm4, %ymm2
	vmovaps	%ymm4, %ymm1
	.p2align 4,,10
	.p2align 3
.L248:
	vmovups	(%rdx,%rax), %ymm0
	vfmadd231ps	(%r11,%rax), %ymm0, %ymm1
	vfmadd231ps	(%r10,%rax), %ymm0, %ymm2
	vfmadd231ps	(%r9,%rax), %ymm0, %ymm3
	vfmadd231ps	(%r8,%rax), %ymm0, %ymm4
	addq	$32, %rax
	cmpq	%r12, %rax
	jne	.L248
	vextractf128	$0x1, %ymm4, %xmm0
	vaddps	%xmm4, %xmm0, %xmm0
	movl	100(%rsp), %edx
	vmovhlps	%xmm0, %xmm0, %xmm4
	vaddps	%xmm0, %xmm4, %xmm4
	movl	%edx, %eax
	vshufps	$85, %xmm4, %xmm4, %xmm0
	vaddps	%xmm4, %xmm0, %xmm0
	vextractf128	$0x1, %ymm3, %xmm4
	vaddps	%xmm3, %xmm4, %xmm3
	vmovhlps	%xmm3, %xmm3, %xmm4
	vaddps	%xmm3, %xmm4, %xmm4
	vshufps	$85, %xmm4, %xmm4, %xmm3
	vaddps	%xmm4, %xmm3, %xmm3
	vextractf128	$0x1, %ymm2, %xmm4
	vaddps	%xmm2, %xmm4, %xmm2
	vmovhlps	%xmm2, %xmm2, %xmm4
	vaddps	%xmm2, %xmm4, %xmm4
	vshufps	$85, %xmm4, %xmm4, %xmm2
	vaddps	%xmm4, %xmm2, %xmm2
	vextractf128	$0x1, %ymm1, %xmm4
	vaddps	%xmm1, %xmm4, %xmm1
	vmovhlps	%xmm1, %xmm1, %xmm4
	vaddps	%xmm1, %xmm4, %xmm4
	vshufps	$85, %xmm4, %xmm4, %xmm1
	vaddps	%xmm4, %xmm1, %xmm1
	cmpl	%eax, %r13d
	je	.L253
.L247:
	movl	%r13d, %r14d
	subl	%eax, %r14d
	leal	-1(%r14), %ebx
	cmpl	$2, %ebx
	jbe	.L250
	movslq	%esi, %rbx
	addq	%rax, %rbx
	vmovups	(%r15,%rbx,4), %xmm4
	movq	712(%rsp), %rbx
	addq	%rax, %rbx
	vmulps	(%rdi,%rbx,4), %xmm4, %xmm6
	movq	744(%rsp), %rbx
	addq	%rax, %rbx
	vmulps	(%rdi,%rbx,4), %xmm4, %xmm7
	movq	776(%rsp), %rbx
	addq	%rax, %rbx
	addq	808(%rsp), %rax
	vmulps	(%rdi,%rbx,4), %xmm4, %xmm8
	vmulps	(%rdi,%rax,4), %xmm4, %xmm4
	movl	%r14d, %eax
	andl	$-4, %eax
	addl	%eax, %edx
	vmovhlps	%xmm4, %xmm4, %xmm5
	vaddps	%xmm4, %xmm5, %xmm5
	vshufps	$85, %xmm5, %xmm5, %xmm4
	vaddps	%xmm5, %xmm4, %xmm4
	vmovhlps	%xmm8, %xmm8, %xmm5
	vaddps	%xmm8, %xmm5, %xmm5
	vaddss	%xmm4, %xmm0, %xmm0
	vshufps	$85, %xmm5, %xmm5, %xmm4
	vaddps	%xmm5, %xmm4, %xmm4
	vmovhlps	%xmm7, %xmm7, %xmm5
	vaddps	%xmm7, %xmm5, %xmm5
	vaddss	%xmm4, %xmm3, %xmm3
	vshufps	$85, %xmm5, %xmm5, %xmm4
	vaddps	%xmm5, %xmm4, %xmm4
	vmovhlps	%xmm6, %xmm6, %xmm5
	vaddps	%xmm6, %xmm5, %xmm5
	vaddss	%xmm4, %xmm2, %xmm2
	vshufps	$85, %xmm5, %xmm5, %xmm4
	vaddps	%xmm5, %xmm4, %xmm4
	vaddss	%xmm4, %xmm1, %xmm1
	cmpl	%r14d, %eax
	je	.L253
.L250:
	movl	124(%rsp), %r14d
	leal	(%rsi,%rdx), %eax
	cltq
	vmovss	(%r15,%rax,4), %xmm4
	leal	(%r14,%rdx), %eax
	cltq
	vfmadd231ss	(%rdi,%rax,4), %xmm4, %xmm1
	movl	156(%rsp), %eax
	movl	160(%rsp), %ebx
	addl	%edx, %eax
	cltq
	vfmadd231ss	(%rdi,%rax,4), %xmm4, %xmm2
	leal	(%rbx,%rdx), %eax
	cltq
	vfmadd231ss	(%rdi,%rax,4), %xmm4, %xmm3
	movl	164(%rsp), %eax
	addl	%edx, %eax
	cltq
	vfmadd231ss	(%rdi,%rax,4), %xmm4, %xmm0
	leal	1(%rdx), %eax
	cmpl	%r13d, %eax
	jge	.L253
	leal	(%rsi,%rax), %ebx
	movslq	%ebx, %rbx
	vmovss	(%r15,%rbx,4), %xmm4
	leal	(%r14,%rax), %ebx
	movslq	%ebx, %rbx
	vfmadd231ss	(%rdi,%rbx,4), %xmm4, %xmm1
	movl	156(%rsp), %ebx
	addl	$2, %edx
	addl	%eax, %ebx
	movslq	%ebx, %rbx
	vfmadd231ss	(%rdi,%rbx,4), %xmm4, %xmm2
	movl	160(%rsp), %ebx
	addl	%eax, %ebx
	addl	164(%rsp), %eax
	movslq	%ebx, %rbx
	cltq
	vfmadd231ss	(%rdi,%rbx,4), %xmm4, %xmm3
	vfmadd231ss	(%rdi,%rax,4), %xmm4, %xmm0
	cmpl	%edx, %r13d
	jle	.L253
	leal	(%rsi,%rdx), %eax
	cltq
	vmovss	(%r15,%rax,4), %xmm4
	movl	156(%rsp), %ebx
	leal	(%r14,%rdx), %eax
	cltq
	vfmadd231ss	(%rdi,%rax,4), %xmm4, %xmm1
	leal	(%rbx,%rdx), %eax
	movl	160(%rsp), %ebx
	cltq
	vfmadd231ss	(%rdi,%rax,4), %xmm4, %xmm2
	leal	(%rbx,%rdx), %eax
	addl	164(%rsp), %edx
	cltq
	movslq	%edx, %rdx
	vfmadd231ss	(%rdi,%rax,4), %xmm4, %xmm3
	vfmadd231ss	(%rdi,%rdx,4), %xmm4, %xmm0
.L253:
	vaddss	(%rcx), %xmm1, %xmm1
	movq	648(%rsp), %rax
	addl	%r13d, %esi
	vmovss	%xmm1, (%rcx)
	vaddss	(%rcx,%rax,4), %xmm2, %xmm2
	vmovss	%xmm2, (%rcx,%rax,4)
	movq	616(%rsp), %rax
	vaddss	(%rcx,%rax,4), %xmm3, %xmm3
	vmovss	%xmm3, (%rcx,%rax,4)
	movq	584(%rsp), %rax
	vaddss	(%rcx,%rax,4), %xmm0, %xmm0
	vmovss	%xmm0, (%rcx,%rax,4)
	addq	$4, %rcx
	cmpq	680(%rsp), %rcx
	jne	.L246
.L245:
	addl	$4, 96(%rsp)
	movl	24(%rsp), %eax
	addl	%eax, 72(%rsp)
	addl	%eax, 76(%rsp)
	addl	%eax, 80(%rsp)
	addl	%eax, 84(%rsp)
	movl	96(%rsp), %edi
	movl	152(%rsp), %eax
	addl	%eax, 124(%rsp)
	addl	%eax, 156(%rsp)
	addl	%eax, 160(%rsp)
	addl	%eax, 164(%rsp)
	cmpl	%edi, 44(%rsp)
	jg	.L236
	movq	88(%rsp), %r15
.L235:
	subq	$-128, 48(%rsp)
	movl	-24(%rsp), %edi
	addl	%edi, 40(%rsp)
	movq	48(%rsp), %rax
	cmpl	%eax, 60(%rsp)
	jg	.L254
.L255:
	movl	-72(%rsp), %edi
	movl	-20(%rsp), %eax
	addl	%edi, -32(%rsp)
	movl	-24(%rsp), %edi
	addl	%edi, -28(%rsp)
	cmpl	16(%rbp), %eax
	jg	.L232
	movl	548(%rsp), %r14d
.L233:
	movl	-20(%rsp), %eax
	cmpl	24(%rbp), %eax
	jge	.L276
	movl	56(%rsp), %edi
	testl	%edi, %edi
	jle	.L276
	movl	%edi, %r13d
	imull	%eax, %r13d
	imull	%r14d, %eax
	movl	%r14d, %r11d
	andl	$-8, %r11d
	movl	%eax, %ebx
	leal	-1(%r14), %eax
	movl	%eax, 776(%rsp)
	movl	%r14d, %eax
	shrl	$3, %eax
	decl	%eax
	incq	%rax
	salq	$5, %rax
	movq	%rax, %r12
	movq	64(%rsp), %rax
	addq	$4, %rax
	movq	%rax, 712(%rsp)
	leal	-1(%rdi), %eax
	movq	%rax, 744(%rsp)
.L229:
	movq	64(%rsp), %rdi
	movslq	%r13d, %rax
	leaq	(%rdi,%rax,4), %r9
	movq	712(%rsp), %rdi
	addq	744(%rsp), %rax
	leaq	(%rdi,%rax,4), %rax
	movq	%rax, 808(%rsp)
	movslq	%ebx, %r10
	leaq	(%r15,%r10,4), %rsi
	xorl	%ecx, %ecx
.L264:
	vxorps	%xmm0, %xmm0, %xmm0
	testl	%r14d, %r14d
	jle	.L263
	cmpl	$6, 776(%rsp)
	jbe	.L267
	movq	144(%rsp), %rdi
	movslq	%ecx, %rax
	leaq	(%rdi,%rax,4), %rdx
	vxorps	%xmm0, %xmm0, %xmm0
	xorl	%eax, %eax
.L257:
	vmovups	(%rdx,%rax), %ymm6
	vfmadd231ps	(%rsi,%rax), %ymm6, %ymm0
	addq	$32, %rax
	cmpq	%r12, %rax
	jne	.L257
	vextractf128	$0x1, %ymm0, %xmm1
	vaddps	%xmm0, %xmm1, %xmm0
	vmovhlps	%xmm0, %xmm0, %xmm1
	vaddps	%xmm0, %xmm1, %xmm1
	vshufps	$85, %xmm1, %xmm1, %xmm0
	vaddps	%xmm1, %xmm0, %xmm0
	cmpl	%r11d, %r14d
	je	.L263
	movl	%r11d, %edx
	movl	%r11d, %eax
.L256:
	movl	%r14d, %r8d
	subl	%edx, %r8d
	leal	-1(%r8), %edi
	cmpl	$2, %edi
	jbe	.L259
	movslq	%ecx, %rdi
	addq	%rdx, %rdi
	addq	%r10, %rdx
	vmovups	(%r15,%rdx,4), %xmm1
	movq	144(%rsp), %rdx
	vmulps	(%rdx,%rdi,4), %xmm1, %xmm1
	movl	%r8d, %edx
	andl	$-4, %edx
	addl	%edx, %eax
	vmovhlps	%xmm1, %xmm1, %xmm2
	vaddps	%xmm1, %xmm2, %xmm2
	vshufps	$85, %xmm2, %xmm2, %xmm1
	vaddps	%xmm2, %xmm1, %xmm1
	vaddss	%xmm1, %xmm0, %xmm0
	cmpl	%r8d, %edx
	je	.L263
.L259:
	leal	(%rbx,%rax), %edi
	movslq	%edi, %rdi
	movq	144(%rsp), %r8
	vmovss	(%r15,%rdi,4), %xmm6
	leal	(%rcx,%rax), %edx
	movslq	%edx, %rdx
	vfmadd231ss	(%r8,%rdx,4), %xmm6, %xmm0
	leal	1(%rax), %edx
	cmpl	%edx, %r14d
	jle	.L263
	leal	(%rcx,%rdx), %edi
	movslq	%edi, %rdi
	vmovss	(%r8,%rdi,4), %xmm6
	addl	%ebx, %edx
	movslq	%edx, %rdx
	addl	$2, %eax
	vfmadd231ss	(%r15,%rdx,4), %xmm6, %xmm0
	cmpl	%eax, %r14d
	jle	.L263
	leal	(%rcx,%rax), %edx
	movslq	%edx, %rdx
	vmovss	(%r8,%rdx,4), %xmm6
	addl	%ebx, %eax
	cltq
	vfmadd231ss	(%r15,%rax,4), %xmm6, %xmm0
.L263:
	vmovss	%xmm0, (%r9)
	addq	$4, %r9
	addl	%r14d, %ecx
	cmpq	808(%rsp), %r9
	jne	.L264
	incl	-20(%rsp)
	addl	56(%rsp), %r13d
	addl	%r14d, %ebx
	movl	-20(%rsp), %eax
	cmpl	%eax, 24(%rbp)
	jne	.L229
.L276:
	vzeroupper
	leaq	-40(%rbp), %rsp
	popq	%rbx
	popq	%r12
	popq	%r13
	popq	%r14
	popq	%r15
	popq	%rbp
	.cfi_remember_state
	.cfi_def_cfa 7, 8
	ret
	.p2align 4,,10
	.p2align 3
.L278:
	.cfi_restore_state
	vxorps	%xmm10, %xmm10, %xmm10
	movl	$0x00000000, 168(%rsp)
	movl	$0x00000000, 172(%rsp)
	movl	$0x00000000, 176(%rsp)
	vmovss	%xmm10, 180(%rsp)
	vmovss	%xmm10, 184(%rsp)
	vmovss	%xmm10, 188(%rsp)
	vmovss	%xmm10, 192(%rsp)
	vmovss	%xmm10, 492(%rsp)
	vmovss	%xmm10, 196(%rsp)
	vmovss	%xmm10, 200(%rsp)
	vmovss	%xmm10, 552(%rsp)
	vmovss	%xmm10, 204(%rsp)
	vmovss	%xmm10, 500(%rsp)
	vmovss	%xmm10, 808(%rsp)
	vmovss	%xmm10, 208(%rsp)
	vmovss	%xmm10, 212(%rsp)
	vmovss	%xmm10, 616(%rsp)
	vmovss	%xmm10, 216(%rsp)
	vmovss	%xmm10, 584(%rsp)
	vmovss	%xmm10, 776(%rsp)
	vmovss	%xmm10, 220(%rsp)
	vmovss	%xmm10, 224(%rsp)
	vmovss	%xmm10, 680(%rsp)
	vmovss	%xmm10, 228(%rsp)
	vmovss	%xmm10, 648(%rsp)
	vmovss	%xmm10, 744(%rsp)
	vmovss	%xmm10, 232(%rsp)
	vmovss	%xmm10, 236(%rsp)
	vmovss	%xmm10, 240(%rsp)
	vmovss	%xmm10, 244(%rsp)
	vmovss	%xmm10, 248(%rsp)
	vmovss	%xmm10, 712(%rsp)
	xorl	%r14d, %r14d
	vmovss	%xmm10, 252(%rsp)
	xorl	%r13d, %r13d
	vmovss	%xmm10, 256(%rsp)
	vmovss	%xmm10, 260(%rsp)
	vmovss	%xmm10, 264(%rsp)
	vmovss	%xmm10, 268(%rsp)
	vmovss	%xmm10, 272(%rsp)
	vmovss	%xmm10, 276(%rsp)
	vmovss	%xmm10, 280(%rsp)
	vmovss	%xmm10, 284(%rsp)
	vmovss	%xmm10, 288(%rsp)
	vmovss	%xmm10, 292(%rsp)
	vmovss	%xmm10, 296(%rsp)
	vmovss	%xmm10, 300(%rsp)
	vmovss	%xmm10, 468(%rsp)
	vmovss	%xmm10, 304(%rsp)
	vmovss	%xmm10, 308(%rsp)
	vmovss	%xmm10, 312(%rsp)
	vmovss	%xmm10, 316(%rsp)
	vmovss	%xmm10, 320(%rsp)
	vmovss	%xmm10, 324(%rsp)
	vmovss	%xmm10, 472(%rsp)
	vmovss	%xmm10, 328(%rsp)
	vmovss	%xmm10, 332(%rsp)
	vmovss	%xmm10, 336(%rsp)
	vmovss	%xmm10, 340(%rsp)
	vmovss	%xmm10, 344(%rsp)
	vmovss	%xmm10, 348(%rsp)
	vmovss	%xmm10, 352(%rsp)
	vmovss	%xmm10, 356(%rsp)
	vmovss	%xmm10, 360(%rsp)
	vmovss	%xmm10, 364(%rsp)
	vmovss	%xmm10, 368(%rsp)
	vmovss	%xmm10, 372(%rsp)
	vmovd	%xmm10, %r10d
	vmovss	%xmm10, 376(%rsp)
	vmovaps	%xmm10, %xmm9
	vmovaps	%xmm10, %xmm15
	vmovd	%xmm10, %esi
	vmovd	%xmm10, %edi
	vmovaps	%xmm10, %xmm11
	vmovd	%xmm10, %eax
	vmovaps	%xmm10, %xmm12
	vmovaps	%xmm10, %xmm14
	vmovd	%xmm10, %ecx
	vmovd	%xmm10, %edx
	vmovaps	%xmm10, %xmm8
	vmovaps	%xmm10, %xmm7
	vmovaps	%xmm10, %xmm6
	vmovaps	%xmm10, %xmm5
	vmovaps	%xmm10, %xmm4
	vmovaps	%xmm10, %xmm3
	vmovd	%xmm10, %r8d
	vmovaps	%xmm10, %xmm0
	vmovss	%xmm10, 380(%rsp)
	vmovss	%xmm10, 384(%rsp)
	vmovss	%xmm10, 388(%rsp)
	vmovss	%xmm10, 392(%rsp)
	vmovss	%xmm10, 396(%rsp)
	vmovss	%xmm10, 400(%rsp)
	vmovss	%xmm10, 404(%rsp)
	vmovss	%xmm10, 476(%rsp)
	vmovss	%xmm10, 408(%rsp)
	vmovss	%xmm10, 412(%rsp)
	vmovss	%xmm10, 480(%rsp)
	vmovss	%xmm10, 416(%rsp)
	vmovss	%xmm10, 420(%rsp)
	vmovss	%xmm10, 424(%rsp)
	vmovss	%xmm10, 428(%rsp)
	vmovss	%xmm10, 432(%rsp)
	vmovss	%xmm10, 436(%rsp)
	vmovss	%xmm10, 440(%rsp)
	vmovss	%xmm10, 444(%rsp)
	vmovss	%xmm10, 448(%rsp)
	vmovss	%xmm10, 452(%rsp)
	vmovss	%xmm10, 464(%rsp)
	vmovss	%xmm10, 456(%rsp)
	vmovd	%xmm10, %r9d
	jmp	.L244
	.p2align 4,,10
	.p2align 3
.L279:
	vxorps	%xmm0, %xmm0, %xmm0
	vmovaps	%xmm0, %xmm3
	vmovaps	%xmm0, %xmm2
	vmovaps	%xmm0, %xmm1
	jmp	.L253
.L266:
	vxorps	%xmm0, %xmm0, %xmm0
	xorl	%eax, %eax
	xorl	%edx, %edx
	vmovaps	%xmm0, %xmm3
	vmovaps	%xmm0, %xmm2
	vmovaps	%xmm0, %xmm1
	jmp	.L247
.L267:
	xorl	%edx, %edx
	xorl	%eax, %eax
	vxorps	%xmm0, %xmm0, %xmm0
	jmp	.L256
	.cfi_endproc
.LFE10947:
	.size	_Z19mul_mt_f32_internalPfS_S_iiiii, .-_Z19mul_mt_f32_internalPfS_S_iiiii
	.section	.text.unlikely,"ax",@progbits
	.align 2
.LCOLDB3:
	.text
.LHOTB3:
	.align 2
	.p2align 4
	.type	_ZNSt6vectorImSaImEEC2ESt16initializer_listImERKS0_.constprop.0, @function
_ZNSt6vectorImSaImEEC2ESt16initializer_listImERKS0_.constprop.0:
.LFB12820:
	.cfi_startproc
	.cfi_personality 0x9b,DW.ref.__gxx_personality_v0
	.cfi_lsda 0x1b,.LLSDA12820
	pushq	%rbp
	.cfi_def_cfa_offset 16
	.cfi_offset 6, -16
	movq	%rsi, %rbp
	pushq	%rbx
	.cfi_def_cfa_offset 24
	.cfi_offset 3, -24
	movq	%rdi, %rbx
	subq	$8, %rsp
	.cfi_def_cfa_offset 32
	movq	$0, (%rdi)
	movq	$0, 8(%rdi)
	movq	$0, 16(%rdi)
	movl	$16, %edi
.LEHB0:
	call	_Znwm@PLT
.LEHE0:
	vmovdqu	0(%rbp), %xmm0
	leaq	16(%rax), %rdx
	vmovdqu	%xmm0, (%rax)
	movq	%rax, (%rbx)
	movq	%rdx, 16(%rbx)
	movq	%rdx, 8(%rbx)
	addq	$8, %rsp
	.cfi_remember_state
	.cfi_def_cfa_offset 24
	popq	%rbx
	.cfi_def_cfa_offset 16
	popq	%rbp
	.cfi_def_cfa_offset 8
	ret
.L283:
	.cfi_restore_state
	endbr64
	movq	%rax, %rbp
	jmp	.L281
	.globl	__gxx_personality_v0
	.section	.gcc_except_table,"a",@progbits
.LLSDA12820:
	.byte	0xff
	.byte	0xff
	.byte	0x1
	.uleb128 .LLSDACSE12820-.LLSDACSB12820
.LLSDACSB12820:
	.uleb128 .LEHB0-.LFB12820
	.uleb128 .LEHE0-.LEHB0
	.uleb128 .L283-.LFB12820
	.uleb128 0
.LLSDACSE12820:
	.text
	.cfi_endproc
	.section	.text.unlikely
	.cfi_startproc
	.cfi_personality 0x9b,DW.ref.__gxx_personality_v0
	.cfi_lsda 0x1b,.LLSDAC12820
	.type	_ZNSt6vectorImSaImEEC2ESt16initializer_listImERKS0_.constprop.0.cold, @function
_ZNSt6vectorImSaImEEC2ESt16initializer_listImERKS0_.constprop.0.cold:
.LFSB12820:
.L281:
	.cfi_def_cfa_offset 32
	.cfi_offset 3, -24
	.cfi_offset 6, -16
	movq	(%rbx), %rdi
	movq	16(%rbx), %rsi
	subq	%rdi, %rsi
	testq	%rdi, %rdi
	je	.L288
	vzeroupper
	call	_ZdlPvm@PLT
.L282:
	movq	%rbp, %rdi
.LEHB1:
	call	_Unwind_Resume@PLT
.LEHE1:
.L288:
	vzeroupper
	jmp	.L282
	.cfi_endproc
.LFE12820:
	.section	.gcc_except_table
.LLSDAC12820:
	.byte	0xff
	.byte	0xff
	.byte	0x1
	.uleb128 .LLSDACSEC12820-.LLSDACSBC12820
.LLSDACSBC12820:
	.uleb128 .LEHB1-.LCOLDB3
	.uleb128 .LEHE1-.LEHB1
	.uleb128 0
	.uleb128 0
.LLSDACSEC12820:
	.section	.text.unlikely
	.text
	.size	_ZNSt6vectorImSaImEEC2ESt16initializer_listImERKS0_.constprop.0, .-_ZNSt6vectorImSaImEEC2ESt16initializer_listImERKS0_.constprop.0
	.section	.text.unlikely
	.size	_ZNSt6vectorImSaImEEC2ESt16initializer_listImERKS0_.constprop.0.cold, .-_ZNSt6vectorImSaImEEC2ESt16initializer_listImERKS0_.constprop.0.cold
.LCOLDE3:
	.text
.LHOTE3:
	.section	.rodata.str1.1,"aMS",@progbits,1
.LC4:
	.string	"vector::_M_realloc_insert"
	.text
	.align 2
	.p2align 4
	.type	_ZNSt6vectorISt6threadSaIS0_EE12emplace_backIJS0_EEERS0_DpOT_.isra.0, @function
_ZNSt6vectorISt6threadSaIS0_EE12emplace_backIJS0_EEERS0_DpOT_.isra.0:
.LFB12824:
	.cfi_startproc
	pushq	%r14
	.cfi_def_cfa_offset 16
	.cfi_offset 14, -16
	pushq	%r13
	.cfi_def_cfa_offset 24
	.cfi_offset 13, -24
	pushq	%r12
	.cfi_def_cfa_offset 32
	.cfi_offset 12, -32
	pushq	%rbp
	.cfi_def_cfa_offset 40
	.cfi_offset 6, -40
	movq	%rdi, %rbp
	pushq	%rbx
	.cfi_def_cfa_offset 48
	.cfi_offset 3, -48
	subq	$16, %rsp
	.cfi_def_cfa_offset 64
	movq	8(%rdi), %rbx
	movq	16(%rdi), %rdi
	cmpq	%rdi, %rbx
	je	.L292
	movq	$0, (%rbx)
	addq	$8, %rbx
	movq	(%rsi), %rax
	movq	$0, (%rsi)
	movq	%rax, -8(%rbx)
	movq	%rbx, 8(%rbp)
	addq	$16, %rsp
	.cfi_remember_state
	.cfi_def_cfa_offset 48
	popq	%rbx
	.cfi_def_cfa_offset 40
	popq	%rbp
	.cfi_def_cfa_offset 32
	popq	%r12
	.cfi_def_cfa_offset 24
	popq	%r13
	.cfi_def_cfa_offset 16
	popq	%r14
	.cfi_def_cfa_offset 8
	ret
	.p2align 4,,10
	.p2align 3
.L292:
	.cfi_restore_state
	movq	0(%rbp), %r12
	movq	%rbx, %r14
	subq	%r12, %r14
	movq	%r14, %rax
	sarq	$3, %rax
	movabsq	$1152921504606846975, %rdx
	cmpq	%rdx, %rax
	je	.L311
	testq	%rax, %rax
	movl	$1, %edx
	cmovne	%rax, %rdx
	addq	%rdx, %rax
	jc	.L296
	testq	%rax, %rax
	jne	.L312
	movl	$8, %eax
	xorl	%r13d, %r13d
	xorl	%r8d, %r8d
.L298:
	movq	(%rsi), %rdx
	movq	$0, (%rsi)
	movq	%rdx, (%r8,%r14)
	cmpq	%r12, %rbx
	je	.L299
	subq	%r12, %rbx
	addq	%r8, %rbx
	movq	%r12, %rdx
	movq	%r8, %rax
	.p2align 4,,10
	.p2align 3
.L300:
	movq	(%rdx), %rcx
	addq	$8, %rax
	movq	%rcx, -8(%rax)
	addq	$8, %rdx
	cmpq	%rbx, %rax
	jne	.L300
	addq	$8, %rax
.L299:
	vmovq	%r8, %xmm1
	vpinsrq	$1, %rax, %xmm1, %xmm0
	testq	%r12, %r12
	je	.L301
	subq	%r12, %rdi
	movq	%rdi, %rsi
	movq	%r12, %rdi
	vmovdqa	%xmm0, (%rsp)
	call	_ZdlPvm@PLT
	vmovdqa	(%rsp), %xmm0
.L301:
	movq	%r13, 16(%rbp)
	vmovdqu	%xmm0, 0(%rbp)
	addq	$16, %rsp
	.cfi_remember_state
	.cfi_def_cfa_offset 48
	popq	%rbx
	.cfi_def_cfa_offset 40
	popq	%rbp
	.cfi_def_cfa_offset 32
	popq	%r12
	.cfi_def_cfa_offset 24
	popq	%r13
	.cfi_def_cfa_offset 16
	popq	%r14
	.cfi_def_cfa_offset 8
	ret
.L312:
	.cfi_restore_state
	movabsq	$1152921504606846975, %rdx
	cmpq	%rdx, %rax
	cmova	%rdx, %rax
	leaq	0(,%rax,8), %r13
.L297:
	movq	%r13, %rdi
	movq	%rsi, (%rsp)
	call	_Znwm@PLT
	movq	%rax, %r8
	addq	%rax, %r13
	movq	16(%rbp), %rdi
	movq	(%rsp), %rsi
	leaq	8(%rax), %rax
	jmp	.L298
.L296:
	movabsq	$9223372036854775800, %r13
	jmp	.L297
.L311:
	leaq	.LC4(%rip), %rdi
	call	_ZSt20__throw_length_errorPKc@PLT
	.cfi_endproc
.LFE12824:
	.size	_ZNSt6vectorISt6threadSaIS0_EE12emplace_backIJS0_EEERS0_DpOT_.isra.0, .-_ZNSt6vectorISt6threadSaIS0_EE12emplace_backIJS0_EEERS0_DpOT_.isra.0
	.section	.text._ZNSt7__cxx119to_stringEm,"axG",@progbits,_ZNSt7__cxx119to_stringEm,comdat
	.p2align 4
	.weak	_ZNSt7__cxx119to_stringEm
	.type	_ZNSt7__cxx119to_stringEm, @function
_ZNSt7__cxx119to_stringEm:
.LFB1874:
	.cfi_startproc
	endbr64
	pushq	%r12
	.cfi_def_cfa_offset 16
	.cfi_offset 12, -16
	movq	%rdi, %r12
	pushq	%rbx
	.cfi_def_cfa_offset 24
	.cfi_offset 3, -24
	movq	%rsi, %rbx
	subq	$8, %rsp
	.cfi_def_cfa_offset 32
	cmpq	$9, %rsi
	jbe	.L314
	cmpq	$99, %rsi
	jbe	.L330
	cmpq	$999, %rsi
	jbe	.L331
	cmpq	$9999, %rsi
	jbe	.L332
	movq	%rsi, %rdx
	movabsq	$3777893186295716171, %rdi
	movl	$1, %esi
	jmp	.L318
	.p2align 4,,10
	.p2align 3
.L335:
	cmpq	$999999, %rcx
	jbe	.L338
	cmpq	$9999999, %rcx
	jbe	.L339
	cmpq	$99999999, %rcx
	jbe	.L340
.L318:
	movq	%rdx, %rax
	movq	%rdx, %rcx
	mulq	%rdi
	movl	%esi, %eax
	addl	$4, %esi
	shrq	$11, %rdx
	cmpq	$99999, %rcx
	ja	.L335
.L323:
	leaq	16(%r12), %rax
	movq	%rax, (%r12)
	xorl	%edx, %edx
	movq	%r12, %rdi
	call	_ZNSt7__cxx1112basic_stringIcSt11char_traitsIcESaIcEE12_M_constructEmc@PLT
	movl	8(%r12), %eax
	movq	(%r12), %rsi
	leal	-1(%rax), %ecx
.L329:
	leaq	_ZZNSt8__detail18__to_chars_10_implImEEvPcjT_E8__digits(%rip), %rdi
	movabsq	$2951479051793528259, %r9
	.p2align 4,,10
	.p2align 3
.L326:
	movq	%rbx, %rdx
	shrq	$2, %rdx
	movq	%rdx, %rax
	mulq	%r9
	movq	%rbx, %rax
	shrq	$2, %rdx
	imulq	$100, %rdx, %r8
	subq	%r8, %rax
	movzbl	1(%rdi,%rax,2), %r10d
	movq	%rbx, %r8
	movzbl	(%rdi,%rax,2), %eax
	movq	%rdx, %rbx
	movl	%ecx, %edx
	movb	%r10b, (%rsi,%rdx)
	leal	-1(%rcx), %edx
	movb	%al, (%rsi,%rdx)
	subl	$2, %ecx
	cmpq	$9999, %r8
	ja	.L326
	cmpq	$999, %r8
	ja	.L321
.L327:
	addl	$48, %ebx
	movb	%bl, (%rsi)
	addq	$8, %rsp
	.cfi_remember_state
	.cfi_def_cfa_offset 24
	movq	%r12, %rax
	popq	%rbx
	.cfi_def_cfa_offset 16
	popq	%r12
	.cfi_def_cfa_offset 8
	ret
	.p2align 4,,10
	.p2align 3
.L338:
	.cfi_restore_state
	leal	5(%rax), %esi
.L315:
	leaq	16(%r12), %rax
	movq	%rax, (%r12)
	movq	%r12, %rdi
	xorl	%edx, %edx
	call	_ZNSt7__cxx1112basic_stringIcSt11char_traitsIcESaIcEE12_M_constructEmc@PLT
	movq	(%r12), %rsi
	leaq	_ZZNSt8__detail18__to_chars_10_implImEEvPcjT_E8__digits(%rip), %rdi
	cmpq	$99, %rbx
	ja	.L341
.L321:
	movzbl	1(%rdi,%rbx,2), %eax
	movzbl	(%rdi,%rbx,2), %ebx
	movb	%al, 1(%rsi)
	movb	%bl, (%rsi)
	addq	$8, %rsp
	.cfi_remember_state
	.cfi_def_cfa_offset 24
	movq	%r12, %rax
	popq	%rbx
	.cfi_def_cfa_offset 16
	popq	%r12
	.cfi_def_cfa_offset 8
	ret
	.p2align 4,,10
	.p2align 3
.L339:
	.cfi_restore_state
	leal	6(%rax), %esi
	jmp	.L323
	.p2align 4,,10
	.p2align 3
.L340:
	leal	7(%rax), %esi
	jmp	.L323
	.p2align 4,,10
	.p2align 3
.L341:
	movl	8(%r12), %eax
	leal	-1(%rax), %ecx
	jmp	.L329
.L314:
	leaq	16(%rdi), %rax
	movq	%rax, (%rdi)
	movl	$1, %esi
	xorl	%edx, %edx
	call	_ZNSt7__cxx1112basic_stringIcSt11char_traitsIcESaIcEE12_M_constructEmc@PLT
	movq	(%r12), %rsi
	jmp	.L327
.L330:
	movl	$2, %esi
	jmp	.L315
.L332:
	movl	$4, %esi
	jmp	.L323
.L331:
	movl	$3, %esi
	jmp	.L323
	.cfi_endproc
.LFE1874:
	.size	_ZNSt7__cxx119to_stringEm, .-_ZNSt7__cxx119to_stringEm
	.text
	.p2align 4
	.globl	_Z12dft_subarrayP7ComplexIdvEiiS1_
	.type	_Z12dft_subarrayP7ComplexIdvEiiS1_, @function
_Z12dft_subarrayP7ComplexIdvEiiS1_:
.LFB10482:
	.cfi_startproc
	endbr64
	leaq	8(%rsp), %r10
	.cfi_def_cfa 10, 0
	andq	$-32, %rsp
	pushq	-8(%r10)
	movl	%edx, %eax
	subl	%esi, %eax
	pushq	%rbp
	movslq	%eax, %r8
	andl	$7, %eax
	movq	%rsp, %rbp
	.cfi_escape 0x10,0x6,0x2,0x76,0
	pushq	%r15
	.cfi_escape 0x10,0xf,0x2,0x76,0x78
	movl	%edx, %r15d
	pushq	%r14
	.cfi_escape 0x10,0xe,0x2,0x76,0x70
	movslq	%esi, %r14
	pushq	%r13
	.cfi_escape 0x10,0xd,0x2,0x76,0x68
	movq	%rcx, %r13
	movl	%edx, %ecx
	pushq	%r12
	subl	%eax, %ecx
	.cfi_escape 0x10,0xc,0x2,0x76,0x60
	movq	%rdi, %r12
	pushq	%r10
	.cfi_escape 0xf,0x3,0x76,0x58,0x6
	pushq	%rbx
	.cfi_escape 0x10,0x3,0x2,0x76,0x50
	movslq	%ecx, %rbx
	subq	$608, %rsp
	cmpq	%rbx, %r14
	jnb	.L356
	movq	%r14, %rax
	salq	$4, %rax
	addq	%rdi, %rax
	movq	%r14, %rdx
	vxorpd	%xmm2, %xmm2, %xmm2
	.p2align 4,,10
	.p2align 3
.L344:
	vmovupd	(%rax), %ymm1
	addq	$8, %rdx
	vaddpd	32(%rax), %ymm1, %ymm0
	vmovupd	64(%rax), %ymm1
	subq	$-128, %rax
	vaddpd	-32(%rax), %ymm1, %ymm1
	vaddpd	%ymm1, %ymm0, %ymm0
	vaddpd	%ymm0, %ymm2, %ymm2
	cmpq	%rbx, %rdx
	jb	.L344
	vextractf128	$0x1, %ymm2, %xmm0
	vunpckhpd	%xmm0, %xmm0, %xmm1
	vunpckhpd	%xmm2, %xmm2, %xmm4
	vaddsd	%xmm4, %xmm1, %xmm4
	vaddsd	%xmm2, %xmm0, %xmm3
	vzeroupper
.L343:
	vmovupd	0(%r13), %xmm0
	vmovsd	0(%r13), %xmm2
	vmovsd	8(%r13), %xmm1
	vunpckhpd	%xmm0, %xmm0, %xmm6
	cmpl	%ecx, %r15d
	jle	.L357
	leal	-1(%r15), %edx
	subl	%ecx, %edx
	movq	%rbx, %rax
	addq	%rbx, %rdx
	salq	$4, %rax
	salq	$4, %rdx
	addq	%r12, %rax
	leaq	16(%r12,%rdx), %rdx
	.p2align 4,,10
	.p2align 3
.L346:
	vaddpd	(%rax), %xmm0, %xmm0
	vaddsd	(%rax), %xmm2, %xmm2
	vaddsd	8(%rax), %xmm1, %xmm1
	addq	$16, %rax
	vmovupd	%xmm0, 0(%r13)
	cmpq	%rax, %rdx
	jne	.L346
.L345:
	vaddsd	%xmm2, %xmm3, %xmm3
	vaddsd	%xmm1, %xmm4, %xmm1
	vxorps	%xmm0, %xmm0, %xmm0
	vmovsd	%xmm3, 0(%r13)
	vmovsd	%xmm1, 8(%r13)
	leaq	-56(%rbp), %rdi
	leaq	-64(%rbp), %rsi
	testq	%r8, %r8
	js	.L347
	vcvtsi2sdq	%r8, %xmm0, %xmm0
.L348:
	vmovsd	.LC6(%rip), %xmm1
	movq	%r8, -112(%rbp)
	vdivsd	%xmm0, %xmm1, %xmm0
	movl	%ecx, -144(%rbp)
	call	sincos@PLT
	vmovsd	-56(%rbp), %xmm2
	vmovsd	-64(%rbp), %xmm5
	vmulsd	%xmm2, %xmm2, %xmm1
	vaddsd	%xmm5, %xmm5, %xmm0
	vxorpd	.LC7(%rip), %xmm2, %xmm3
	vmovsd	%xmm2, -616(%rbp)
	vmulsd	%xmm3, %xmm0, %xmm0
	vfmsub231sd	%xmm5, %xmm5, %xmm1
	movq	-112(%rbp), %r8
	vmovsd	%xmm5, -648(%rbp)
	vmovsd	%xmm3, -624(%rbp)
	vmulsd	%xmm1, %xmm0, %xmm2
	vmulsd	%xmm0, %xmm0, %xmm0
	vaddsd	%xmm2, %xmm2, %xmm2
	vfmsub132sd	%xmm1, %xmm0, %xmm1
	vmovsd	%xmm2, -632(%rbp)
	vmovsd	%xmm1, -640(%rbp)
	cmpq	$1, %r8
	jbe	.L365
	movq	%r14, %rax
	salq	$4, %rax
	leaq	(%r12,%rax), %rdi
	movq	%rbx, %rax
	movl	-144(%rbp), %ecx
	salq	$4, %rax
	leaq	(%r12,%rax), %rsi
	leal	-1(%r15), %eax
	subl	%ecx, %eax
	addq	%rbx, %rax
	salq	$4, %rax
	leaq	16(%r12,%rax), %r12
	movq	%rsi, %rax
	leaq	16(%r13), %r11
	vmovsd	%xmm3, -448(%rbp)
	movq	%r8, %rsi
	movq	%rdi, %r9
	vmovsd	%xmm5, -72(%rbp)
	movl	$1, %r13d
	movl	%ecx, %edi
	movq	%rax, %r8
	vmovsd	%xmm5, %xmm5, %xmm3
	.p2align 4,,10
	.p2align 3
.L353:
	vmovsd	-648(%rbp), %xmm2
	vmovsd	-448(%rbp), %xmm11
	vmovsd	-624(%rbp), %xmm9
	vmulsd	%xmm11, %xmm2, %xmm0
	vmovsd	-616(%rbp), %xmm4
	vmovsd	%xmm2, %xmm2, %xmm7
	vmovsd	%xmm2, %xmm2, %xmm6
	vmovsd	%xmm0, %xmm0, %xmm5
	vmulsd	%xmm9, %xmm11, %xmm0
	vfnmadd231sd	%xmm3, %xmm4, %xmm5
	vfmsub132sd	%xmm3, %xmm0, %xmm7
	vfnmadd231sd	%xmm2, %xmm3, %xmm0
	vmulsd	%xmm5, %xmm2, %xmm1
	vmovsd	%xmm5, %xmm5, %xmm15
	vmovsd	%xmm5, -600(%rbp)
	vmovsd	%xmm7, -440(%rbp)
	vmovsd	%xmm0, %xmm0, %xmm10
	vmulsd	%xmm9, %xmm5, %xmm0
	vfmadd132sd	%xmm4, %xmm1, %xmm10
	vfmsub132sd	%xmm7, %xmm0, %xmm6
	vfnmadd231sd	%xmm2, %xmm7, %xmm0
	vmulsd	%xmm10, %xmm2, %xmm1
	vmovsd	%xmm10, -464(%rbp)
	vmovsd	%xmm6, -80(%rbp)
	vmovsd	%xmm0, %xmm0, %xmm14
	vmulsd	%xmm9, %xmm10, %xmm0
	vfmadd132sd	%xmm4, %xmm1, %xmm14
	vmovsd	%xmm3, %xmm3, %xmm9
	vmovq	.LC8(%rip), %xmm1
	vunpcklpd	%xmm11, %xmm3, %xmm3
	vmovsd	%xmm0, %xmm0, %xmm13
	vfmsub231sd	%xmm6, %xmm2, %xmm13
	vmovq	.LC8(%rip), %xmm2
	vmulsd	%xmm11, %xmm9, %xmm4
	vinsertf128	$0x1, %xmm3, %ymm2, %ymm3
	vunpcklpd	%xmm5, %xmm7, %xmm2
	vmovq	.LC8(%rip), %xmm5
	vinsertf128	$0x1, %xmm2, %ymm1, %ymm2
	vunpcklpd	%xmm14, %xmm13, %xmm0
	vunpcklpd	%xmm10, %xmm6, %xmm1
	vinsertf128	$0x1, %xmm1, %ymm5, %ymm1
	vinsertf128	$0x1, %xmm0, %ymm5, %ymm0
	vmulsd	%xmm11, %xmm11, %xmm5
	vaddsd	%xmm4, %xmm4, %xmm4
	vmovsd	%xmm14, -608(%rbp)
	vmovsd	%xmm13, -456(%rbp)
	vfmsub231sd	%xmm9, %xmm9, %xmm5
	vunpcklpd	%xmm4, %xmm5, %xmm4
	vmulsd	%xmm15, %xmm15, %xmm5
	vmovapd	%xmm4, %xmm9
	vmulsd	%xmm15, %xmm7, %xmm4
	vinsertf128	$1, %xmm9, %ymm9, %ymm9
	vmovapd	%ymm9, -304(%rbp)
	vfmsub231sd	%xmm7, %xmm7, %xmm5
	vaddsd	%xmm4, %xmm4, %xmm4
	vunpcklpd	%xmm4, %xmm5, %xmm4
	vmovapd	%xmm4, %xmm7
	vmulsd	%xmm10, %xmm10, %xmm4
	vaddsd	%xmm6, %xmm6, %xmm5
	vinsertf128	$1, %xmm7, %ymm7, %ymm7
	vmovapd	%ymm7, -112(%rbp)
	vmulsd	%xmm10, %xmm5, %xmm5
	vfmsub231sd	%xmm6, %xmm6, %xmm4
	vunpcklpd	%xmm5, %xmm4, %xmm4
	vmulsd	%xmm14, %xmm14, %xmm5
	vmovapd	%xmm4, %xmm6
	vmulsd	%xmm14, %xmm13, %xmm4
	vinsertf128	$1, %xmm6, %ymm6, %ymm6
	vmovapd	%ymm6, -144(%rbp)
	vfmsub231sd	%xmm13, %xmm13, %xmm5
	vaddsd	%xmm4, %xmm4, %xmm4
	vunpcklpd	%xmm4, %xmm5, %xmm4
	vmovapd	%xmm4, %xmm5
	vinsertf128	$1, %xmm5, %ymm5, %ymm5
	vmovapd	%ymm5, -176(%rbp)
	cmpq	%rbx, %r14
	jnb	.L358
	vxorpd	%xmm4, %xmm4, %xmm4
	vmovapd	%ymm4, -432(%rbp)
	vmovapd	%ymm4, -400(%rbp)
	vmovapd	%ymm4, -368(%rbp)
	vmovapd	%ymm4, -336(%rbp)
	vpermilpd	$5, %ymm7, %ymm7
	vpermilpd	$5, %ymm9, %ymm4
	vpermilpd	$5, %ymm6, %ymm6
	movq	%r9, %rax
	movq	%r14, %rdx
	vmovapd	%ymm4, -208(%rbp)
	vmovapd	%ymm7, -240(%rbp)
	vmovapd	%ymm6, -272(%rbp)
	vpermilpd	$5, %ymm5, %ymm15
	.p2align 4,,10
	.p2align 3
.L351:
	vmovupd	(%rax), %ymm5
	vpermilpd	$5, %ymm3, %ymm4
	vmulpd	%ymm5, %ymm3, %ymm6
	vmulpd	%ymm5, %ymm4, %ymm4
	vmovapd	-304(%rbp), %ymm14
	vmovapd	-112(%rbp), %ymm8
	vmovapd	-240(%rbp), %ymm13
	vhsubpd	%ymm6, %ymm6, %ymm6
	vhaddpd	%ymm4, %ymm4, %ymm4
	addq	$8, %rdx
	subq	$-128, %rax
	vblendpd	$10, %ymm4, %ymm6, %ymm6
	vpermilpd	$5, %ymm2, %ymm4
	vmovapd	%ymm6, -496(%rbp)
	vmulpd	%ymm5, %ymm4, %ymm4
	vmulpd	%ymm5, %ymm2, %ymm6
	vhaddpd	%ymm4, %ymm4, %ymm4
	vhsubpd	%ymm6, %ymm6, %ymm6
	vblendpd	$10, %ymm4, %ymm6, %ymm7
	vpermilpd	$5, %ymm1, %ymm4
	vmulpd	%ymm5, %ymm1, %ymm6
	vmulpd	%ymm5, %ymm4, %ymm4
	vmovapd	%ymm7, -528(%rbp)
	vmovapd	-208(%rbp), %ymm7
	vhsubpd	%ymm6, %ymm6, %ymm6
	vhaddpd	%ymm4, %ymm4, %ymm4
	vblendpd	$10, %ymm4, %ymm6, %ymm4
	vmovapd	%ymm4, -560(%rbp)
	vpermilpd	$5, %ymm0, %ymm4
	vmulpd	%ymm5, %ymm0, %ymm6
	vmulpd	%ymm5, %ymm4, %ymm4
	vhsubpd	%ymm6, %ymm6, %ymm6
	vhaddpd	%ymm4, %ymm4, %ymm4
	vblendpd	$10, %ymm4, %ymm6, %ymm5
	vmulpd	%ymm14, %ymm3, %ymm6
	vmulpd	%ymm7, %ymm3, %ymm3
	vmulpd	-144(%rbp), %ymm1, %ymm4
	vmulpd	-272(%rbp), %ymm1, %ymm1
	vmovapd	%ymm5, -592(%rbp)
	vhsubpd	%ymm6, %ymm6, %ymm6
	vhaddpd	%ymm3, %ymm3, %ymm3
	vhsubpd	%ymm4, %ymm4, %ymm4
	vhaddpd	%ymm1, %ymm1, %ymm1
	vblendpd	$10, %ymm3, %ymm6, %ymm6
	vmulpd	-176(%rbp), %ymm0, %ymm3
	vmulpd	%ymm0, %ymm15, %ymm0
	vblendpd	$10, %ymm1, %ymm4, %ymm4
	vmovupd	-96(%rax), %ymm1
	vmulpd	%ymm8, %ymm2, %ymm5
	vhsubpd	%ymm3, %ymm3, %ymm3
	vhaddpd	%ymm0, %ymm0, %ymm0
	vmulpd	%ymm13, %ymm2, %ymm2
	vmulpd	%ymm1, %ymm6, %ymm12
	vblendpd	$10, %ymm0, %ymm3, %ymm3
	vpermilpd	$5, %ymm6, %ymm0
	vmulpd	%ymm1, %ymm0, %ymm0
	vhaddpd	%ymm2, %ymm2, %ymm2
	vhsubpd	%ymm5, %ymm5, %ymm5
	vhsubpd	%ymm12, %ymm12, %ymm12
	vmulpd	%ymm1, %ymm4, %ymm10
	vhaddpd	%ymm0, %ymm0, %ymm0
	vblendpd	$10, %ymm2, %ymm5, %ymm5
	vmulpd	%ymm1, %ymm5, %ymm11
	vblendpd	$10, %ymm0, %ymm12, %ymm12
	vpermilpd	$5, %ymm5, %ymm0
	vmulpd	%ymm1, %ymm0, %ymm0
	vhsubpd	%ymm10, %ymm10, %ymm10
	vhsubpd	%ymm11, %ymm11, %ymm11
	vmulpd	%ymm14, %ymm6, %ymm2
	vmulpd	%ymm7, %ymm6, %ymm6
	vhaddpd	%ymm0, %ymm0, %ymm0
	vmulpd	%ymm1, %ymm3, %ymm9
	vaddpd	-496(%rbp), %ymm12, %ymm12
	vblendpd	$10, %ymm0, %ymm11, %ymm11
	vpermilpd	$5, %ymm4, %ymm0
	vmulpd	%ymm1, %ymm0, %ymm0
	vhaddpd	%ymm6, %ymm6, %ymm6
	vhsubpd	%ymm2, %ymm2, %ymm2
	vhsubpd	%ymm9, %ymm9, %ymm9
	vhaddpd	%ymm0, %ymm0, %ymm0
	vblendpd	$10, %ymm6, %ymm2, %ymm2
	vblendpd	$10, %ymm0, %ymm10, %ymm10
	vpermilpd	$5, %ymm3, %ymm0
	vmulpd	%ymm1, %ymm0, %ymm0
	vmulpd	%ymm8, %ymm5, %ymm1
	vmulpd	-176(%rbp), %ymm3, %ymm8
	vmulpd	%ymm3, %ymm15, %ymm3
	vmulpd	%ymm13, %ymm5, %ymm5
	vmovupd	-64(%rax), %ymm13
	vhsubpd	%ymm1, %ymm1, %ymm1
	vhsubpd	%ymm8, %ymm8, %ymm8
	vhaddpd	%ymm3, %ymm3, %ymm3
	vmulpd	%ymm13, %ymm2, %ymm7
	vhaddpd	%ymm5, %ymm5, %ymm5
	vblendpd	$10, %ymm3, %ymm8, %ymm8
	vpermilpd	$5, %ymm2, %ymm3
	vmulpd	%ymm13, %ymm3, %ymm3
	vhaddpd	%ymm0, %ymm0, %ymm0
	vhsubpd	%ymm7, %ymm7, %ymm7
	vblendpd	$10, %ymm5, %ymm1, %ymm1
	vblendpd	$10, %ymm0, %ymm9, %ymm9
	vhaddpd	%ymm3, %ymm3, %ymm3
	vmulpd	-144(%rbp), %ymm4, %ymm0
	vmulpd	-272(%rbp), %ymm4, %ymm4
	vblendpd	$10, %ymm3, %ymm7, %ymm7
	vpermilpd	$5, %ymm1, %ymm3
	vmulpd	%ymm13, %ymm1, %ymm6
	vmulpd	%ymm13, %ymm3, %ymm3
	vhaddpd	%ymm4, %ymm4, %ymm4
	vhsubpd	%ymm0, %ymm0, %ymm0
	vhsubpd	%ymm6, %ymm6, %ymm6
	vhaddpd	%ymm3, %ymm3, %ymm3
	vblendpd	$10, %ymm4, %ymm0, %ymm0
	vmulpd	%ymm13, %ymm0, %ymm5
	vblendpd	$10, %ymm3, %ymm6, %ymm6
	vpermilpd	$5, %ymm0, %ymm3
	vmulpd	%ymm13, %ymm3, %ymm3
	vmulpd	%ymm13, %ymm8, %ymm4
	vhsubpd	%ymm5, %ymm5, %ymm5
	vhaddpd	%ymm3, %ymm3, %ymm3
	vhsubpd	%ymm4, %ymm4, %ymm4
	vblendpd	$10, %ymm3, %ymm5, %ymm5
	vpermilpd	$5, %ymm8, %ymm3
	vmulpd	%ymm13, %ymm3, %ymm3
	vhaddpd	%ymm3, %ymm3, %ymm3
	vblendpd	$10, %ymm3, %ymm4, %ymm4
	vmulpd	%ymm14, %ymm2, %ymm3
	vmulpd	-208(%rbp), %ymm2, %ymm2
	vmovupd	-32(%rax), %ymm14
	vhsubpd	%ymm3, %ymm3, %ymm3
	vhaddpd	%ymm2, %ymm2, %ymm2
	vblendpd	$10, %ymm2, %ymm3, %ymm3
	vmulpd	-112(%rbp), %ymm1, %ymm2
	vmulpd	-240(%rbp), %ymm1, %ymm1
	vmulpd	%ymm14, %ymm3, %ymm13
	vhsubpd	%ymm2, %ymm2, %ymm2
	vhaddpd	%ymm1, %ymm1, %ymm1
	vhsubpd	%ymm13, %ymm13, %ymm13
	vblendpd	$10, %ymm1, %ymm2, %ymm2
	vmulpd	-144(%rbp), %ymm0, %ymm1
	vmulpd	-272(%rbp), %ymm0, %ymm0
	vhsubpd	%ymm1, %ymm1, %ymm1
	vhaddpd	%ymm0, %ymm0, %ymm0
	vblendpd	$10, %ymm0, %ymm1, %ymm1
	vmulpd	-176(%rbp), %ymm8, %ymm0
	vmulpd	%ymm8, %ymm15, %ymm8
	vhsubpd	%ymm0, %ymm0, %ymm0
	vhaddpd	%ymm8, %ymm8, %ymm8
	vblendpd	$10, %ymm8, %ymm0, %ymm0
	vpermilpd	$5, %ymm3, %ymm8
	vmulpd	%ymm14, %ymm8, %ymm8
	vhaddpd	%ymm8, %ymm8, %ymm8
	vblendpd	$10, %ymm8, %ymm13, %ymm8
	vaddpd	%ymm8, %ymm7, %ymm7
	vmulpd	%ymm14, %ymm2, %ymm8
	vaddpd	%ymm7, %ymm12, %ymm12
	vpermilpd	$5, %ymm2, %ymm7
	vmulpd	%ymm14, %ymm7, %ymm7
	vhsubpd	%ymm8, %ymm8, %ymm8
	vaddpd	-336(%rbp), %ymm12, %ymm12
	vhaddpd	%ymm7, %ymm7, %ymm7
	vmovapd	%ymm12, -336(%rbp)
	vblendpd	$10, %ymm7, %ymm8, %ymm7
	vaddpd	%ymm7, %ymm6, %ymm6
	vaddpd	-528(%rbp), %ymm11, %ymm8
	vmulpd	%ymm14, %ymm1, %ymm7
	vaddpd	%ymm6, %ymm8, %ymm8
	vpermilpd	$5, %ymm1, %ymm6
	vmulpd	%ymm14, %ymm6, %ymm6
	vhsubpd	%ymm7, %ymm7, %ymm7
	vaddpd	-368(%rbp), %ymm8, %ymm12
	vhaddpd	%ymm6, %ymm6, %ymm6
	vmovapd	%ymm12, -368(%rbp)
	vblendpd	$10, %ymm6, %ymm7, %ymm6
	vaddpd	%ymm6, %ymm5, %ymm5
	vaddpd	-560(%rbp), %ymm10, %ymm7
	vpermilpd	$5, %ymm0, %ymm6
	vmulpd	%ymm14, %ymm6, %ymm6
	vaddpd	%ymm5, %ymm7, %ymm7
	vmulpd	%ymm14, %ymm0, %ymm5
	vaddpd	-400(%rbp), %ymm7, %ymm11
	vhaddpd	%ymm6, %ymm6, %ymm6
	vhsubpd	%ymm5, %ymm5, %ymm5
	vmovapd	%ymm11, -400(%rbp)
	vblendpd	$10, %ymm6, %ymm5, %ymm5
	vaddpd	%ymm5, %ymm4, %ymm4
	vaddpd	-592(%rbp), %ymm9, %ymm6
	vmulpd	-208(%rbp), %ymm3, %ymm5
	vaddpd	%ymm4, %ymm6, %ymm6
	vmulpd	-304(%rbp), %ymm3, %ymm4
	vhaddpd	%ymm5, %ymm5, %ymm3
	vmulpd	-240(%rbp), %ymm2, %ymm5
	vaddpd	-432(%rbp), %ymm6, %ymm10
	vhsubpd	%ymm4, %ymm4, %ymm4
	vmovapd	%ymm10, -432(%rbp)
	vblendpd	$10, %ymm3, %ymm4, %ymm3
	vmulpd	-112(%rbp), %ymm2, %ymm4
	vhaddpd	%ymm5, %ymm5, %ymm2
	vmulpd	-272(%rbp), %ymm1, %ymm5
	vhsubpd	%ymm4, %ymm4, %ymm4
	vblendpd	$10, %ymm2, %ymm4, %ymm2
	vmulpd	-144(%rbp), %ymm1, %ymm4
	vhaddpd	%ymm5, %ymm5, %ymm1
	vmulpd	%ymm0, %ymm15, %ymm5
	vhsubpd	%ymm4, %ymm4, %ymm4
	vblendpd	$10, %ymm1, %ymm4, %ymm1
	vmulpd	-176(%rbp), %ymm0, %ymm4
	vhaddpd	%ymm5, %ymm5, %ymm0
	vhsubpd	%ymm4, %ymm4, %ymm4
	vblendpd	$10, %ymm0, %ymm4, %ymm0
	cmpq	%rbx, %rdx
	jb	.L351
	vmovapd	-336(%rbp), %ymm6
	vmovapd	%xmm0, %xmm5
	vmovapd	%xmm6, %xmm4
	vmovsd	%xmm0, %xmm0, %xmm9
	vextractf128	$0x1, %ymm6, %xmm0
	vunpckhpd	%xmm0, %xmm0, %xmm7
	vaddsd	%xmm4, %xmm0, %xmm0
	vunpckhpd	%xmm6, %xmm6, %xmm6
	vaddsd	%xmm6, %xmm7, %xmm6
	vmovsd	%xmm0, -112(%rbp)
	vextractf128	$0x1, %ymm12, %xmm0
	vunpckhpd	%xmm0, %xmm0, %xmm7
	vaddsd	%xmm12, %xmm0, %xmm0
	vmovq	%xmm6, %rcx
	vunpckhpd	%xmm12, %xmm12, %xmm6
	vaddsd	%xmm6, %xmm7, %xmm6
	vmovsd	%xmm0, -144(%rbp)
	vextractf128	$0x1, %ymm11, %xmm0
	vunpckhpd	%xmm0, %xmm0, %xmm7
	vaddsd	%xmm11, %xmm0, %xmm0
	vmovq	%xmm6, %r10
	vunpckhpd	%xmm11, %xmm11, %xmm6
	vextractf128	$0x1, %ymm10, %xmm4
	vaddsd	%xmm6, %xmm7, %xmm6
	vmovq	%xmm0, %rdx
	vaddsd	%xmm10, %xmm4, %xmm0
	vunpckhpd	%xmm4, %xmm4, %xmm14
	vmovsd	%xmm6, -176(%rbp)
	vunpckhpd	%xmm10, %xmm10, %xmm6
	vaddsd	%xmm6, %xmm14, %xmm14
	vmovsd	%xmm0, -208(%rbp)
	vunpckhpd	%xmm1, %xmm1, %xmm4
	vunpckhpd	%xmm5, %xmm5, %xmm0
	vunpckhpd	%xmm2, %xmm2, %xmm6
	vunpckhpd	%xmm3, %xmm3, %xmm5
.L350:
	cmpl	%edi, %r15d
	jle	.L355
	vmovsd	8(%r11), %xmm13
	vmovsd	56(%r11), %xmm10
	vmovsd	40(%r11), %xmm11
	vmovsd	24(%r11), %xmm12
	vmovsd	%xmm13, %xmm13, %xmm7
	vmovsd	-608(%rbp), %xmm15
	vmovsd	%xmm2, %xmm2, %xmm13
	vmovsd	%xmm10, %xmm10, %xmm2
	movq	%rcx, -240(%rbp)
	vmovsd	%xmm14, -272(%rbp)
	movq	%rsi, %rcx
	vmovsd	%xmm3, %xmm3, %xmm14
	vmovsd	%xmm11, %xmm11, %xmm10
	movq	%r8, %rax
	vmovsd	%xmm2, %xmm2, %xmm11
	movq	%r14, %rsi
	vmovsd	%xmm12, %xmm12, %xmm3
	vmovsd	%xmm7, %xmm7, %xmm2
	.p2align 4,,10
	.p2align 3
.L352:
	vmovsd	8(%rax), %xmm7
	vmovsd	(%rax), %xmm8
	vmulsd	%xmm14, %xmm7, %xmm12
	addq	$16, %rax
	vfmadd231sd	%xmm5, %xmm8, %xmm12
	vfmadd213sd	(%r11), %xmm14, %xmm8
	vaddsd	%xmm12, %xmm2, %xmm2
	vfnmadd132sd	%xmm5, %xmm8, %xmm7
	vmovsd	-448(%rbp), %xmm12
	vmovsd	%xmm2, 8(%r11)
	vmulsd	%xmm12, %xmm5, %xmm8
	vmovsd	%xmm7, (%r11)
	vmovsd	%xmm14, %xmm14, %xmm7
	vmulsd	%xmm12, %xmm7, %xmm7
	vfmsub132sd	-72(%rbp), %xmm8, %xmm14
	vmovsd	-16(%rax), %xmm8
	vfmadd132sd	-72(%rbp), %xmm7, %xmm5
	vmovsd	-8(%rax), %xmm7
	vmulsd	%xmm13, %xmm7, %xmm12
	vfmadd231sd	%xmm6, %xmm8, %xmm12
	vfmadd213sd	16(%r11), %xmm13, %xmm8
	vaddsd	%xmm12, %xmm3, %xmm3
	vfnmadd132sd	%xmm6, %xmm8, %xmm7
	vmovsd	-600(%rbp), %xmm12
	vmovsd	%xmm3, 24(%r11)
	vmulsd	%xmm12, %xmm6, %xmm8
	vmovsd	%xmm7, 16(%r11)
	vmovsd	%xmm13, %xmm13, %xmm7
	vmulsd	%xmm12, %xmm7, %xmm7
	vfmsub132sd	-440(%rbp), %xmm8, %xmm13
	vmovsd	-16(%rax), %xmm8
	vfmadd132sd	-440(%rbp), %xmm7, %xmm6
	vmovsd	-8(%rax), %xmm7
	vmulsd	%xmm1, %xmm7, %xmm12
	vfmadd231sd	%xmm4, %xmm8, %xmm12
	vfmadd213sd	32(%r11), %xmm1, %xmm8
	vaddsd	%xmm12, %xmm10, %xmm10
	vfnmadd132sd	%xmm4, %xmm8, %xmm7
	vmovsd	-464(%rbp), %xmm12
	vmovsd	%xmm10, 40(%r11)
	vmulsd	%xmm12, %xmm4, %xmm8
	vmovsd	%xmm7, 32(%r11)
	vmovsd	%xmm1, %xmm1, %xmm7
	vmulsd	%xmm12, %xmm7, %xmm7
	vfmsub132sd	-80(%rbp), %xmm8, %xmm1
	vmovsd	-16(%rax), %xmm8
	vfmadd132sd	-80(%rbp), %xmm7, %xmm4
	vmovsd	-8(%rax), %xmm7
	vmulsd	%xmm9, %xmm7, %xmm12
	vfmadd231sd	%xmm0, %xmm8, %xmm12
	vfmadd213sd	48(%r11), %xmm9, %xmm8
	vaddsd	%xmm12, %xmm11, %xmm11
	vfnmadd132sd	%xmm0, %xmm8, %xmm7
	vmulsd	%xmm0, %xmm15, %xmm8
	vmovsd	-456(%rbp), %xmm12
	vmovsd	%xmm11, 56(%r11)
	vmovsd	%xmm7, 48(%r11)
	vmovsd	%xmm9, %xmm9, %xmm7
	vmulsd	%xmm7, %xmm15, %xmm7
	vfmsub132sd	%xmm12, %xmm8, %xmm9
	vfmadd132sd	%xmm12, %xmm7, %xmm0
	cmpq	%r12, %rax
	jne	.L352
	movq	%rsi, %r14
	vmovsd	-272(%rbp), %xmm14
	movq	%rcx, %rsi
	movq	-240(%rbp), %rcx
.L355:
	vmovsd	-448(%rbp), %xmm2
	vmovsd	-632(%rbp), %xmm1
	vmovsd	-72(%rbp), %xmm3
	vmulsd	%xmm2, %xmm1, %xmm0
	vmulsd	%xmm1, %xmm3, %xmm1
	vmovsd	-640(%rbp), %xmm5
	vaddsd	56(%r11), %xmm14, %xmm14
	addq	$4, %r13
	vfmsub231sd	%xmm3, %xmm5, %xmm0
	vfmadd132sd	%xmm5, %xmm1, %xmm2
	vmovsd	%xmm14, 56(%r11)
	addq	$64, %r11
	vmovsd	%xmm2, -448(%rbp)
	vmovsd	-112(%rbp), %xmm2
	vaddsd	-64(%r11), %xmm2, %xmm1
	vmovq	%rcx, %xmm2
	vmovsd	%xmm1, -64(%r11)
	vaddsd	-56(%r11), %xmm2, %xmm1
	vmovsd	-144(%rbp), %xmm2
	vmovsd	%xmm1, -56(%r11)
	vaddsd	-48(%r11), %xmm2, %xmm1
	vmovq	%r10, %xmm2
	vmovsd	%xmm1, -48(%r11)
	vaddsd	-40(%r11), %xmm2, %xmm1
	vmovq	%rdx, %xmm2
	vmovsd	%xmm1, -40(%r11)
	vaddsd	-32(%r11), %xmm2, %xmm1
	vmovsd	-176(%rbp), %xmm2
	vmovsd	%xmm1, -32(%r11)
	vaddsd	-24(%r11), %xmm2, %xmm1
	vmovsd	-208(%rbp), %xmm2
	vaddsd	-16(%r11), %xmm2, %xmm15
	vmovsd	%xmm1, -24(%r11)
	vmovsd	%xmm15, -16(%r11)
	cmpq	%r13, %rsi
	jbe	.L367
	vmovsd	%xmm0, -72(%rbp)
	vmovsd	%xmm0, %xmm0, %xmm3
	jmp	.L353
	.p2align 4,,10
	.p2align 3
.L367:
	vzeroupper
.L365:
	addq	$608, %rsp
	popq	%rbx
	popq	%r10
	.cfi_remember_state
	.cfi_def_cfa 10, 0
	popq	%r12
	popq	%r13
	popq	%r14
	popq	%r15
	popq	%rbp
	leaq	-8(%r10), %rsp
	.cfi_def_cfa 7, 8
	ret
	.p2align 4,,10
	.p2align 3
.L358:
	.cfi_restore_state
	vmovsd	.LC5(%rip), %xmm3
	vxorpd	%xmm5, %xmm5, %xmm5
	vmovsd	%xmm3, %xmm3, %xmm2
	vmovsd	%xmm5, %xmm5, %xmm6
	vmovsd	%xmm3, %xmm3, %xmm1
	vmovsd	%xmm5, %xmm5, %xmm4
	vmovsd	%xmm5, %xmm5, %xmm0
	vmovsd	%xmm5, -208(%rbp)
	vmovsd	%xmm5, %xmm5, %xmm14
	vmovq	%xmm5, %rdx
	vmovsd	%xmm5, -176(%rbp)
	vmovsd	%xmm5, -144(%rbp)
	vmovq	%xmm5, %r10
	vmovsd	%xmm5, -112(%rbp)
	vmovq	%xmm5, %rcx
	vmovsd	%xmm3, %xmm3, %xmm9
	jmp	.L350
.L347:
	movq	%r8, %rax
	movq	%r8, %rdx
	shrq	%rax
	andl	$1, %edx
	orq	%rdx, %rax
	vcvtsi2sdq	%rax, %xmm0, %xmm0
	vaddsd	%xmm0, %xmm0, %xmm0
	jmp	.L348
.L357:
	vmovsd	%xmm6, %xmm6, %xmm1
	vmovsd	%xmm0, %xmm0, %xmm2
	jmp	.L345
.L356:
	vxorpd	%xmm3, %xmm3, %xmm3
	vmovsd	%xmm3, %xmm3, %xmm4
	jmp	.L343
	.cfi_endproc
.LFE10482:
	.size	_Z12dft_subarrayP7ComplexIdvEiiS1_, .-_Z12dft_subarrayP7ComplexIdvEiiS1_
	.p2align 4
	.globl	_Z20dft_subarray_inplaceP7ComplexIdvEii
	.type	_Z20dft_subarray_inplaceP7ComplexIdvEii, @function
_Z20dft_subarray_inplaceP7ComplexIdvEii:
.LFB10489:
	.cfi_startproc
	endbr64
	leaq	8(%rsp), %r10
	.cfi_def_cfa 10, 0
	andq	$-32, %rsp
	pushq	-8(%r10)
	pushq	%rbp
	movq	%rsp, %rbp
	.cfi_escape 0x10,0x6,0x2,0x76,0
	pushq	%r15
	pushq	%r14
	pushq	%r13
	.cfi_escape 0x10,0xf,0x2,0x76,0x78
	.cfi_escape 0x10,0xe,0x2,0x76,0x70
	.cfi_escape 0x10,0xd,0x2,0x76,0x68
	movl	%edx, %r13d
	pushq	%r12
	.cfi_escape 0x10,0xc,0x2,0x76,0x60
	movl	%esi, %r12d
	pushq	%r10
	.cfi_escape 0xf,0x3,0x76,0x58,0x6
	pushq	%rbx
	subq	$672, %rsp
	.cfi_escape 0x10,0x3,0x2,0x76,0x50
	movq	%rdi, -680(%rbp)
	movq	%fs:40, %rax
	movq	%rax, -56(%rbp)
	movl	%edx, %eax
	movq	%rsp, %rdx
	subl	%esi, %eax
	movl	%eax, -692(%rbp)
	cltq
	movq	%rax, -688(%rbp)
	salq	$4, %rax
	movq	%rax, %rcx
	andq	$-4096, %rcx
	subq	%rcx, %rdx
	movq	%rax, -712(%rbp)
	cmpq	%rdx, %rsp
	je	.L370
.L419:
	subq	$4096, %rsp
	orq	$0, 4088(%rsp)
	cmpq	%rdx, %rsp
	jne	.L419
.L370:
	andl	$4095, %eax
	subq	%rax, %rsp
	testq	%rax, %rax
	jne	.L420
.L371:
	movl	$3, %eax
	shrx	%rax, %rsp, %r8
	movl	-692(%rbp), %eax
	movq	%rsp, -704(%rbp)
	testl	%eax, %eax
	jle	.L378
	cmpl	$1, -692(%rbp)
	je	.L401
	movq	-688(%rbp), %rdx
	movq	%rsp, %rbx
	shrq	%rdx
	salq	$5, %rdx
	movq	%rbx, %rax
	addq	%rbx, %rdx
	vxorpd	%xmm0, %xmm0, %xmm0
	.p2align 4,,10
	.p2align 3
.L376:
	vmovupd	%ymm0, (%rax)
	addq	$32, %rax
	cmpq	%rax, %rdx
	jne	.L376
	movq	-688(%rbp), %rbx
	movq	%rbx, %rdx
	andq	$-2, %rdx
	movq	%rdx, %rax
	salq	$4, %rax
	addq	-704(%rbp), %rax
	cmpq	%rdx, %rbx
	je	.L378
.L375:
	vxorpd	%xmm0, %xmm0, %xmm0
	vmovupd	%xmm0, (%rax)
.L378:
	movl	-692(%rbp), %esi
	movl	%r13d, %r9d
	andl	$7, %esi
	subl	%esi, %r9d
	movslq	%r12d, %r14
	movslq	%r9d, %rbx
	vxorpd	%xmm1, %xmm1, %xmm1
	cmpq	%rbx, %r14
	jnb	.L374
	movq	%r14, %rax
	salq	$4, %rax
	addq	-680(%rbp), %rax
	movq	%r14, %rdx
	vxorpd	%xmm2, %xmm2, %xmm2
	.p2align 4,,10
	.p2align 3
.L380:
	vmovupd	(%rax), %ymm7
	addq	$8, %rdx
	vaddpd	32(%rax), %ymm7, %ymm0
	vmovupd	64(%rax), %ymm7
	subq	$-128, %rax
	vaddpd	-32(%rax), %ymm7, %ymm1
	vaddpd	%ymm1, %ymm0, %ymm0
	vaddpd	%ymm0, %ymm2, %ymm2
	cmpq	%rbx, %rdx
	jb	.L380
	vextractf128	$0x1, %ymm2, %xmm1
	vaddsd	%xmm2, %xmm1, %xmm0
	vunpckhpd	%xmm1, %xmm1, %xmm1
	vunpckhpd	%xmm2, %xmm2, %xmm2
	vaddsd	%xmm2, %xmm1, %xmm1
	vunpcklpd	%xmm1, %xmm0, %xmm1
.L374:
	vmovupd	0(,%r8,8), %xmm2
	vunpckhpd	%xmm2, %xmm2, %xmm3
	cmpl	%r9d, %r13d
	jle	.L381
	cmpl	$1, %esi
	je	.L402
	movslq	%r13d, %rdi
	movslq	%esi, %r10
	movq	%rdi, %rdx
	subq	%r10, %rdx
	movl	%esi, %eax
	shrl	%eax
	salq	$4, %rdx
	leal	-1(%rax), %ecx
	addq	-680(%rbp), %rdx
	vunpcklpd	%xmm3, %xmm2, %xmm0
	salq	$5, %rcx
	leaq	32(%rdx), %rax
	vmovapd	%xmm0, %xmm0
	addq	%rax, %rcx
	jmp	.L383
	.p2align 4,,10
	.p2align 3
.L421:
	addq	$32, %rax
.L383:
	vaddpd	(%rdx), %ymm0, %ymm0
	movq	%rax, %rdx
	cmpq	%rax, %rcx
	jne	.L421
	movl	%esi, %eax
	vextractf128	$0x1, %ymm0, %xmm2
	andl	$-2, %eax
	andl	$-7, %esi
	vaddpd	%xmm0, %xmm2, %xmm2
	je	.L381
.L382:
	subq	%r10, %rdi
	movq	-680(%rbp), %rcx
	addq	%rdi, %rax
	salq	$4, %rax
	vaddpd	(%rcx,%rax), %xmm2, %xmm2
.L381:
	vaddpd	%xmm2, %xmm1, %xmm0
	movq	-688(%rbp), %rax
	vxorps	%xmm3, %xmm3, %xmm3
	vmovupd	%xmm0, 0(,%r8,8)
	leaq	-72(%rbp), %rdi
	leaq	-80(%rbp), %rsi
	testq	%rax, %rax
	js	.L385
	vcvtsi2sdq	%rax, %xmm3, %xmm3
.L386:
	vmovsd	.LC6(%rip), %xmm0
	movl	%r9d, -112(%rbp)
	vdivsd	%xmm3, %xmm0, %xmm0
	vzeroupper
	call	sincos@PLT
	vmovsd	-72(%rbp), %xmm2
	vmovsd	-80(%rbp), %xmm7
	vmulsd	%xmm2, %xmm2, %xmm1
	vaddsd	%xmm7, %xmm7, %xmm0
	vxorpd	.LC7(%rip), %xmm2, %xmm5
	vmovsd	%xmm2, -648(%rbp)
	vmulsd	%xmm5, %xmm0, %xmm0
	vfmsub231sd	%xmm7, %xmm7, %xmm1
	movl	-692(%rbp), %eax
	movq	-688(%rbp), %r10
	decl	%eax
	movl	%eax, %ecx
	vmulsd	%xmm1, %xmm0, %xmm2
	vmulsd	%xmm0, %xmm0, %xmm0
	andl	$3, %eax
	andl	$3, %ecx
	subq	%rax, %r10
	vaddsd	%xmm2, %xmm2, %xmm2
	vfmsub132sd	%xmm1, %xmm0, %xmm1
	movl	%ecx, -696(%rbp)
	vmovsd	%xmm7, -640(%rbp)
	vmovsd	%xmm5, -632(%rbp)
	vmovsd	%xmm2, -656(%rbp)
	vmovsd	%xmm1, -664(%rbp)
	cmpq	$1, %r10
	jbe	.L403
	movq	-704(%rbp), %rax
	movq	-680(%rbp), %rcx
	leaq	16(%rax), %r15
	movq	%r14, %rax
	movl	-112(%rbp), %r9d
	salq	$4, %rax
	addq	%rcx, %rax
	movq	%rax, %rsi
	movl	%r9d, %eax
	subl	%r12d, %eax
	decl	%eax
	shrl	$3, %eax
	leaq	(%r14,%rax,8), %rax
	salq	$4, %rax
	leaq	128(%rcx,%rax), %r11
	movq	%rbx, %rax
	salq	$4, %rax
	addq	%rcx, %rax
	movq	%rax, -672(%rbp)
	leal	-1(%r13), %eax
	subl	%r9d, %eax
	addq	%rbx, %rax
	salq	$4, %rax
	leaq	16(%rcx,%rax), %r8
	movl	$1, %edi
	movq	%r14, -720(%rbp)
	movq	%rdi, %rbx
	vmovsd	%xmm5, -336(%rbp)
	movq	%r8, %rdi
	vmovsd	%xmm7, -312(%rbp)
	movl	%r13d, %r8d
	movq	%rsi, %r14
	movl	%r12d, %r13d
	vmovsd	%xmm7, %xmm7, %xmm10
	movq	%r11, %r12
	movl	%r9d, %r11d
	.p2align 4,,10
	.p2align 3
.L392:
	vmovsd	-640(%rbp), %xmm2
	vmovsd	-336(%rbp), %xmm15
	vmovsd	-632(%rbp), %xmm14
	vmulsd	%xmm15, %xmm2, %xmm0
	vmovsd	-648(%rbp), %xmm4
	vmovsd	%xmm2, %xmm2, %xmm6
	vmovsd	%xmm2, %xmm2, %xmm7
	vunpcklpd	%xmm15, %xmm10, %xmm3
	vmovsd	%xmm0, %xmm0, %xmm5
	vmulsd	%xmm14, %xmm15, %xmm0
	vfnmadd231sd	%xmm10, %xmm4, %xmm5
	vfmsub132sd	%xmm10, %xmm0, %xmm6
	vfnmadd231sd	%xmm2, %xmm10, %xmm0
	vmulsd	%xmm5, %xmm2, %xmm1
	vmovsd	%xmm5, -624(%rbp)
	vmovsd	%xmm6, -328(%rbp)
	vmovsd	%xmm0, %xmm0, %xmm12
	vmulsd	%xmm14, %xmm5, %xmm0
	vfmadd132sd	%xmm4, %xmm1, %xmm12
	vfmsub132sd	%xmm6, %xmm0, %xmm7
	vfnmadd231sd	%xmm2, %xmm6, %xmm0
	vmulsd	%xmm12, %xmm2, %xmm1
	vmovsd	%xmm12, -616(%rbp)
	vmovsd	%xmm7, -320(%rbp)
	vmovsd	%xmm0, %xmm0, %xmm13
	vmulsd	%xmm14, %xmm12, %xmm0
	vfmadd132sd	%xmm4, %xmm1, %xmm13
	vmovq	.LC8(%rip), %xmm1
	vmovsd	%xmm15, %xmm15, %xmm14
	vmovsd	%xmm5, %xmm5, %xmm15
	vmovsd	%xmm0, %xmm0, %xmm11
	vfmsub231sd	%xmm7, %xmm2, %xmm11
	vmovq	.LC8(%rip), %xmm2
	vmulsd	%xmm14, %xmm10, %xmm4
	vinsertf128	$0x1, %xmm3, %ymm2, %ymm3
	vunpcklpd	%xmm5, %xmm6, %xmm2
	vmovq	.LC8(%rip), %xmm5
	vinsertf128	$0x1, %xmm2, %ymm1, %ymm2
	vunpcklpd	%xmm13, %xmm11, %xmm0
	vunpcklpd	%xmm12, %xmm7, %xmm1
	vinsertf128	$0x1, %xmm1, %ymm5, %ymm1
	vinsertf128	$0x1, %xmm0, %ymm5, %ymm0
	vmulsd	%xmm14, %xmm14, %xmm5
	vaddsd	%xmm4, %xmm4, %xmm4
	vmovsd	%xmm13, -600(%rbp)
	vmovsd	%xmm11, -608(%rbp)
	vfmsub231sd	%xmm10, %xmm10, %xmm5
	vunpcklpd	%xmm4, %xmm5, %xmm4
	vmulsd	%xmm15, %xmm15, %xmm5
	vmovapd	%xmm4, %xmm10
	vmulsd	%xmm15, %xmm6, %xmm4
	vinsertf128	$1, %xmm10, %ymm10, %ymm10
	vmovapd	%ymm10, -304(%rbp)
	vfmsub231sd	%xmm6, %xmm6, %xmm5
	vaddsd	%xmm4, %xmm4, %xmm4
	vunpcklpd	%xmm4, %xmm5, %xmm4
	vmovapd	%xmm4, %xmm6
	vmulsd	%xmm12, %xmm12, %xmm4
	vaddsd	%xmm7, %xmm7, %xmm5
	vinsertf128	$1, %xmm6, %ymm6, %ymm6
	vmovapd	%ymm6, -112(%rbp)
	vmulsd	%xmm12, %xmm5, %xmm5
	vfmsub231sd	%xmm7, %xmm7, %xmm4
	vunpcklpd	%xmm5, %xmm4, %xmm4
	vmulsd	%xmm13, %xmm13, %xmm5
	vmovapd	%xmm4, %xmm7
	vmulsd	%xmm13, %xmm11, %xmm4
	vinsertf128	$1, %xmm7, %ymm7, %ymm7
	vmovapd	%ymm7, -144(%rbp)
	vfmsub231sd	%xmm11, %xmm11, %xmm5
	vaddsd	%xmm4, %xmm4, %xmm4
	vunpcklpd	%xmm4, %xmm5, %xmm4
	vmovapd	%xmm4, %xmm5
	vinsertf128	$1, %xmm5, %ymm5, %ymm5
	vmovapd	%ymm5, -176(%rbp)
	cmpl	%r11d, %r13d
	jge	.L404
	vxorpd	%xmm4, %xmm4, %xmm4
	vmovapd	%ymm4, -464(%rbp)
	vmovapd	%ymm4, -432(%rbp)
	vmovapd	%ymm4, -400(%rbp)
	vmovapd	%ymm4, -368(%rbp)
	vpermilpd	$5, %ymm6, %ymm6
	vpermilpd	$5, %ymm10, %ymm4
	vpermilpd	$5, %ymm7, %ymm7
	movq	%r14, %rax
	vmovapd	%ymm4, -208(%rbp)
	vmovapd	%ymm6, -240(%rbp)
	vmovapd	%ymm7, -272(%rbp)
	vpermilpd	$5, %ymm5, %ymm15
	.p2align 4,,10
	.p2align 3
.L389:
	vmovupd	(%rax), %ymm5
	vpermilpd	$5, %ymm3, %ymm4
	vmulpd	%ymm5, %ymm3, %ymm6
	vmulpd	%ymm5, %ymm4, %ymm4
	vmovapd	-304(%rbp), %ymm14
	vmovapd	-112(%rbp), %ymm8
	vmovapd	-240(%rbp), %ymm13
	vhsubpd	%ymm6, %ymm6, %ymm6
	vhaddpd	%ymm4, %ymm4, %ymm4
	subq	$-128, %rax
	vblendpd	$10, %ymm4, %ymm6, %ymm7
	vpermilpd	$5, %ymm2, %ymm4
	vmulpd	%ymm5, %ymm2, %ymm6
	vmulpd	%ymm5, %ymm4, %ymm4
	vmovapd	%ymm7, -496(%rbp)
	vmovapd	-208(%rbp), %ymm7
	vhsubpd	%ymm6, %ymm6, %ymm6
	vhaddpd	%ymm4, %ymm4, %ymm4
	vblendpd	$10, %ymm4, %ymm6, %ymm6
	vpermilpd	$5, %ymm1, %ymm4
	vmovapd	%ymm6, -528(%rbp)
	vmulpd	%ymm5, %ymm4, %ymm4
	vmulpd	%ymm5, %ymm1, %ymm6
	vhaddpd	%ymm4, %ymm4, %ymm4
	vhsubpd	%ymm6, %ymm6, %ymm6
	vblendpd	$10, %ymm4, %ymm6, %ymm4
	vmovapd	%ymm4, -560(%rbp)
	vpermilpd	$5, %ymm0, %ymm4
	vmulpd	%ymm5, %ymm0, %ymm6
	vmulpd	%ymm5, %ymm4, %ymm4
	vhsubpd	%ymm6, %ymm6, %ymm6
	vhaddpd	%ymm4, %ymm4, %ymm4
	vblendpd	$10, %ymm4, %ymm6, %ymm5
	vmulpd	%ymm14, %ymm3, %ymm6
	vmulpd	%ymm7, %ymm3, %ymm3
	vmulpd	-144(%rbp), %ymm1, %ymm4
	vmulpd	-272(%rbp), %ymm1, %ymm1
	vmovapd	%ymm5, -592(%rbp)
	vhsubpd	%ymm6, %ymm6, %ymm6
	vhaddpd	%ymm3, %ymm3, %ymm3
	vhsubpd	%ymm4, %ymm4, %ymm4
	vhaddpd	%ymm1, %ymm1, %ymm1
	vblendpd	$10, %ymm3, %ymm6, %ymm6
	vmulpd	-176(%rbp), %ymm0, %ymm3
	vmulpd	%ymm0, %ymm15, %ymm0
	vblendpd	$10, %ymm1, %ymm4, %ymm4
	vmovupd	-96(%rax), %ymm1
	vmulpd	%ymm8, %ymm2, %ymm5
	vhsubpd	%ymm3, %ymm3, %ymm3
	vhaddpd	%ymm0, %ymm0, %ymm0
	vmulpd	%ymm13, %ymm2, %ymm2
	vmulpd	%ymm1, %ymm6, %ymm12
	vblendpd	$10, %ymm0, %ymm3, %ymm3
	vpermilpd	$5, %ymm6, %ymm0
	vmulpd	%ymm1, %ymm0, %ymm0
	vhaddpd	%ymm2, %ymm2, %ymm2
	vhsubpd	%ymm5, %ymm5, %ymm5
	vhsubpd	%ymm12, %ymm12, %ymm12
	vmulpd	%ymm1, %ymm4, %ymm10
	vhaddpd	%ymm0, %ymm0, %ymm0
	vblendpd	$10, %ymm2, %ymm5, %ymm5
	vmulpd	%ymm1, %ymm5, %ymm11
	vblendpd	$10, %ymm0, %ymm12, %ymm12
	vpermilpd	$5, %ymm5, %ymm0
	vmulpd	%ymm1, %ymm0, %ymm0
	vhsubpd	%ymm10, %ymm10, %ymm10
	vhsubpd	%ymm11, %ymm11, %ymm11
	vmulpd	%ymm14, %ymm6, %ymm2
	vmulpd	%ymm7, %ymm6, %ymm6
	vhaddpd	%ymm0, %ymm0, %ymm0
	vmulpd	%ymm1, %ymm3, %ymm9
	vaddpd	-496(%rbp), %ymm12, %ymm12
	vblendpd	$10, %ymm0, %ymm11, %ymm11
	vpermilpd	$5, %ymm4, %ymm0
	vmulpd	%ymm1, %ymm0, %ymm0
	vhaddpd	%ymm6, %ymm6, %ymm6
	vhsubpd	%ymm2, %ymm2, %ymm2
	vhsubpd	%ymm9, %ymm9, %ymm9
	vhaddpd	%ymm0, %ymm0, %ymm0
	vblendpd	$10, %ymm6, %ymm2, %ymm2
	vblendpd	$10, %ymm0, %ymm10, %ymm10
	vpermilpd	$5, %ymm3, %ymm0
	vmulpd	%ymm1, %ymm0, %ymm0
	vmulpd	%ymm8, %ymm5, %ymm1
	vmulpd	-176(%rbp), %ymm3, %ymm8
	vmulpd	%ymm3, %ymm15, %ymm3
	vmulpd	%ymm13, %ymm5, %ymm5
	vmovupd	-64(%rax), %ymm13
	vhsubpd	%ymm1, %ymm1, %ymm1
	vhsubpd	%ymm8, %ymm8, %ymm8
	vhaddpd	%ymm3, %ymm3, %ymm3
	vmulpd	%ymm2, %ymm13, %ymm7
	vhaddpd	%ymm5, %ymm5, %ymm5
	vblendpd	$10, %ymm3, %ymm8, %ymm8
	vpermilpd	$5, %ymm2, %ymm3
	vmulpd	%ymm3, %ymm13, %ymm3
	vhaddpd	%ymm0, %ymm0, %ymm0
	vhsubpd	%ymm7, %ymm7, %ymm7
	vblendpd	$10, %ymm5, %ymm1, %ymm1
	vblendpd	$10, %ymm0, %ymm9, %ymm9
	vhaddpd	%ymm3, %ymm3, %ymm3
	vmulpd	-144(%rbp), %ymm4, %ymm0
	vmulpd	-272(%rbp), %ymm4, %ymm4
	vblendpd	$10, %ymm3, %ymm7, %ymm7
	vpermilpd	$5, %ymm1, %ymm3
	vmulpd	%ymm1, %ymm13, %ymm6
	vmulpd	%ymm3, %ymm13, %ymm3
	vhaddpd	%ymm4, %ymm4, %ymm4
	vhsubpd	%ymm0, %ymm0, %ymm0
	vhsubpd	%ymm6, %ymm6, %ymm6
	vhaddpd	%ymm3, %ymm3, %ymm3
	vblendpd	$10, %ymm4, %ymm0, %ymm0
	vmulpd	%ymm0, %ymm13, %ymm5
	vblendpd	$10, %ymm3, %ymm6, %ymm6
	vpermilpd	$5, %ymm0, %ymm3
	vmulpd	%ymm3, %ymm13, %ymm3
	vmulpd	%ymm8, %ymm13, %ymm4
	vhsubpd	%ymm5, %ymm5, %ymm5
	vhaddpd	%ymm3, %ymm3, %ymm3
	vhsubpd	%ymm4, %ymm4, %ymm4
	vblendpd	$10, %ymm3, %ymm5, %ymm5
	vpermilpd	$5, %ymm8, %ymm3
	vmulpd	%ymm3, %ymm13, %ymm3
	vhaddpd	%ymm3, %ymm3, %ymm3
	vblendpd	$10, %ymm3, %ymm4, %ymm4
	vmulpd	%ymm14, %ymm2, %ymm3
	vmulpd	-208(%rbp), %ymm2, %ymm2
	vmovupd	-32(%rax), %ymm14
	vhsubpd	%ymm3, %ymm3, %ymm3
	vhaddpd	%ymm2, %ymm2, %ymm2
	vblendpd	$10, %ymm2, %ymm3, %ymm3
	vmulpd	-112(%rbp), %ymm1, %ymm2
	vmulpd	-240(%rbp), %ymm1, %ymm1
	vmulpd	%ymm14, %ymm3, %ymm13
	vhsubpd	%ymm2, %ymm2, %ymm2
	vhaddpd	%ymm1, %ymm1, %ymm1
	vhsubpd	%ymm13, %ymm13, %ymm13
	vblendpd	$10, %ymm1, %ymm2, %ymm2
	vmulpd	-144(%rbp), %ymm0, %ymm1
	vmulpd	-272(%rbp), %ymm0, %ymm0
	vhsubpd	%ymm1, %ymm1, %ymm1
	vhaddpd	%ymm0, %ymm0, %ymm0
	vblendpd	$10, %ymm0, %ymm1, %ymm1
	vmulpd	-176(%rbp), %ymm8, %ymm0
	vmulpd	%ymm8, %ymm15, %ymm8
	vhsubpd	%ymm0, %ymm0, %ymm0
	vhaddpd	%ymm8, %ymm8, %ymm8
	vblendpd	$10, %ymm8, %ymm0, %ymm0
	vpermilpd	$5, %ymm3, %ymm8
	vmulpd	%ymm14, %ymm8, %ymm8
	vhaddpd	%ymm8, %ymm8, %ymm8
	vblendpd	$10, %ymm8, %ymm13, %ymm8
	vaddpd	%ymm8, %ymm7, %ymm7
	vmulpd	%ymm14, %ymm2, %ymm8
	vaddpd	%ymm7, %ymm12, %ymm12
	vaddpd	-368(%rbp), %ymm12, %ymm7
	vhsubpd	%ymm8, %ymm8, %ymm8
	vmovapd	%ymm7, -368(%rbp)
	vpermilpd	$5, %ymm2, %ymm7
	vmulpd	%ymm14, %ymm7, %ymm7
	vhaddpd	%ymm7, %ymm7, %ymm7
	vblendpd	$10, %ymm7, %ymm8, %ymm7
	vaddpd	%ymm7, %ymm6, %ymm6
	vaddpd	-528(%rbp), %ymm11, %ymm8
	vmulpd	%ymm14, %ymm1, %ymm7
	vaddpd	%ymm6, %ymm8, %ymm8
	vpermilpd	$5, %ymm1, %ymm6
	vmulpd	%ymm14, %ymm6, %ymm6
	vhsubpd	%ymm7, %ymm7, %ymm7
	vaddpd	-400(%rbp), %ymm8, %ymm11
	vhaddpd	%ymm6, %ymm6, %ymm6
	vmovapd	%ymm11, -400(%rbp)
	vblendpd	$10, %ymm6, %ymm7, %ymm6
	vaddpd	%ymm6, %ymm5, %ymm5
	vaddpd	-560(%rbp), %ymm10, %ymm7
	vpermilpd	$5, %ymm0, %ymm6
	vmulpd	%ymm14, %ymm6, %ymm6
	vaddpd	%ymm5, %ymm7, %ymm7
	vmulpd	%ymm14, %ymm0, %ymm5
	vaddpd	-432(%rbp), %ymm7, %ymm11
	vhaddpd	%ymm6, %ymm6, %ymm6
	vhsubpd	%ymm5, %ymm5, %ymm5
	vmovapd	%ymm11, -432(%rbp)
	vblendpd	$10, %ymm6, %ymm5, %ymm5
	vaddpd	%ymm5, %ymm4, %ymm4
	vaddpd	-592(%rbp), %ymm9, %ymm6
	vmulpd	-208(%rbp), %ymm3, %ymm5
	vaddpd	%ymm4, %ymm6, %ymm6
	vmulpd	-304(%rbp), %ymm3, %ymm4
	vhaddpd	%ymm5, %ymm5, %ymm3
	vmulpd	-240(%rbp), %ymm2, %ymm5
	vaddpd	-464(%rbp), %ymm6, %ymm9
	vhsubpd	%ymm4, %ymm4, %ymm4
	vmovapd	%ymm9, -464(%rbp)
	vblendpd	$10, %ymm3, %ymm4, %ymm3
	vmulpd	-112(%rbp), %ymm2, %ymm4
	vhaddpd	%ymm5, %ymm5, %ymm2
	vmulpd	-272(%rbp), %ymm1, %ymm5
	vhsubpd	%ymm4, %ymm4, %ymm4
	vblendpd	$10, %ymm2, %ymm4, %ymm2
	vmulpd	-144(%rbp), %ymm1, %ymm4
	vhaddpd	%ymm5, %ymm5, %ymm1
	vmulpd	%ymm0, %ymm15, %ymm5
	vhsubpd	%ymm4, %ymm4, %ymm4
	vblendpd	$10, %ymm1, %ymm4, %ymm1
	vmulpd	-176(%rbp), %ymm0, %ymm4
	vhaddpd	%ymm5, %ymm5, %ymm0
	vhsubpd	%ymm4, %ymm4, %ymm4
	vblendpd	$10, %ymm0, %ymm4, %ymm0
	cmpq	%r12, %rax
	jne	.L389
	vmovapd	-368(%rbp), %ymm15
	vmovsd	%xmm0, %xmm0, %xmm4
	vextractf128	$0x1, %ymm15, %xmm8
	vunpckhpd	%xmm8, %xmm8, %xmm11
	vunpckhpd	%xmm15, %xmm15, %xmm10
	vmovapd	%xmm15, %xmm9
	vaddsd	%xmm10, %xmm11, %xmm15
	vunpckhpd	%xmm3, %xmm3, %xmm5
	vunpckhpd	%xmm1, %xmm1, %xmm6
	vmovsd	%xmm15, -176(%rbp)
	vaddsd	%xmm9, %xmm8, %xmm15
	vunpckhpd	%xmm2, %xmm2, %xmm7
	vunpckhpd	%xmm0, %xmm0, %xmm0
	vmovsd	%xmm15, -208(%rbp)
	vmovapd	-400(%rbp), %ymm15
	vextractf128	$0x1, %ymm15, %xmm8
	vunpckhpd	%xmm8, %xmm8, %xmm11
	vunpckhpd	%xmm15, %xmm15, %xmm10
	vmovapd	%xmm15, %xmm9
	vaddsd	%xmm10, %xmm11, %xmm15
	vmovsd	%xmm15, -240(%rbp)
	vaddsd	%xmm9, %xmm8, %xmm15
	vmovsd	%xmm15, -272(%rbp)
	vmovapd	-432(%rbp), %ymm15
	vextractf128	$0x1, %ymm15, %xmm10
	vunpckhpd	%xmm10, %xmm10, %xmm9
	vunpckhpd	%xmm15, %xmm15, %xmm8
	vmovapd	%xmm15, %xmm11
	vaddsd	%xmm8, %xmm9, %xmm15
	vmovsd	%xmm15, -304(%rbp)
	vaddsd	%xmm11, %xmm10, %xmm15
	vmovsd	%xmm15, -368(%rbp)
	vmovapd	-464(%rbp), %ymm15
	vextractf128	$0x1, %ymm15, %xmm11
	vunpckhpd	%xmm15, %xmm15, %xmm9
	vunpckhpd	%xmm11, %xmm11, %xmm8
	vmovapd	%xmm15, %xmm10
	vaddsd	%xmm8, %xmm9, %xmm15
	vmovsd	%xmm15, -400(%rbp)
	vaddsd	%xmm10, %xmm11, %xmm15
	vmovsd	%xmm15, -432(%rbp)
.L388:
	vmovsd	(%r15), %xmm13
	vmovsd	%xmm13, %xmm13, %xmm8
	cmpl	%r11d, %r8d
	jle	.L390
	movq	8(%r15), %rcx
	vmovsd	32(%r15), %xmm14
	vmovsd	16(%r15), %xmm9
	vmovsd	40(%r15), %xmm8
	movq	24(%r15), %rsi
	vmovsd	48(%r15), %xmm15
	movq	56(%r15), %rdx
	movq	-672(%rbp), %rax
	movq	%rcx, -144(%rbp)
	vmovsd	%xmm13, -112(%rbp)
	movq	%r14, %rcx
	vmovsd	%xmm14, %xmm14, %xmm13
	movq	%r12, %r14
	vmovsd	%xmm9, %xmm9, %xmm12
	movq	%rbx, %r12
	vmovsd	%xmm8, %xmm8, %xmm14
	movq	%r15, %rbx
	.p2align 4,,10
	.p2align 3
.L391:
	vmovsd	8(%rax), %xmm10
	vmovsd	(%rax), %xmm11
	vmulsd	%xmm3, %xmm10, %xmm8
	addq	$16, %rax
	vfmadd231sd	%xmm5, %xmm11, %xmm8
	vmovq	%xmm8, %r9
	vmulsd	%xmm5, %xmm10, %xmm8
	vfmsub231sd	%xmm3, %xmm11, %xmm8
	vaddsd	-112(%rbp), %xmm8, %xmm9
	vmovq	%r9, %xmm8
	vmovq	%xmm3, %r9
	vmovsd	%xmm9, -112(%rbp)
	vaddsd	-144(%rbp), %xmm8, %xmm9
	vmovsd	-336(%rbp), %xmm8
	vmovsd	%xmm9, -144(%rbp)
	vmulsd	%xmm8, %xmm5, %xmm9
	vfmsub132sd	-312(%rbp), %xmm9, %xmm3
	vmovq	%r9, %xmm9
	vmulsd	%xmm8, %xmm9, %xmm9
	vfmadd132sd	-312(%rbp), %xmm9, %xmm5
	vmulsd	%xmm2, %xmm10, %xmm9
	vmovsd	%xmm9, %xmm9, %xmm8
	vfmadd231sd	%xmm7, %xmm11, %xmm8
	vmulsd	%xmm7, %xmm10, %xmm9
	vmovq	%xmm8, %r9
	vmovsd	%xmm9, %xmm9, %xmm8
	vfmsub231sd	%xmm2, %xmm11, %xmm8
	vmovq	%rsi, %xmm9
	vaddsd	%xmm8, %xmm12, %xmm12
	vmovq	%r9, %xmm8
	vaddsd	%xmm8, %xmm9, %xmm9
	vmovsd	-624(%rbp), %xmm8
	vmovq	%xmm2, %r9
	vmovq	%xmm9, %rsi
	vmulsd	%xmm8, %xmm7, %xmm9
	vfmsub132sd	-328(%rbp), %xmm9, %xmm2
	vmovq	%r9, %xmm9
	vmulsd	%xmm8, %xmm9, %xmm9
	vfmadd132sd	-328(%rbp), %xmm9, %xmm7
	vmulsd	%xmm1, %xmm10, %xmm9
	vmovsd	%xmm9, %xmm9, %xmm8
	vfmadd231sd	%xmm6, %xmm11, %xmm8
	vmulsd	%xmm6, %xmm10, %xmm9
	vmovq	%xmm8, %r9
	vmovsd	%xmm9, %xmm9, %xmm8
	vfmsub231sd	%xmm1, %xmm11, %xmm8
	vmovq	%r9, %xmm9
	vaddsd	%xmm9, %xmm14, %xmm14
	vmovq	%xmm1, %r9
	vaddsd	%xmm8, %xmm13, %xmm13
	vmovsd	-616(%rbp), %xmm8
	vmulsd	%xmm8, %xmm6, %xmm9
	vfmsub132sd	-320(%rbp), %xmm9, %xmm1
	vmovq	%r9, %xmm9
	vmulsd	%xmm8, %xmm9, %xmm9
	vfmadd132sd	-320(%rbp), %xmm9, %xmm6
	vmulsd	%xmm4, %xmm10, %xmm9
	vmulsd	%xmm0, %xmm10, %xmm10
	vmovsd	%xmm9, %xmm9, %xmm8
	vfmsub231sd	%xmm4, %xmm11, %xmm10
	vfmadd231sd	%xmm0, %xmm11, %xmm8
	vmovsd	-608(%rbp), %xmm9
	vaddsd	%xmm10, %xmm15, %xmm15
	vmovq	%rdx, %xmm10
	vaddsd	%xmm8, %xmm10, %xmm11
	vmovsd	-600(%rbp), %xmm8
	vmovsd	%xmm4, %xmm4, %xmm10
	vmulsd	%xmm8, %xmm10, %xmm10
	vmovq	%xmm11, %rdx
	vmulsd	%xmm8, %xmm0, %xmm11
	vfmadd132sd	%xmm9, %xmm10, %xmm0
	vfmsub132sd	%xmm9, %xmm11, %xmm4
	cmpq	%rax, %rdi
	jne	.L391
	movq	%rbx, %r15
	movq	%r12, %rbx
	movq	%r14, %r12
	movq	%rcx, %r14
	movq	-144(%rbp), %rcx
	vmovsd	%xmm14, %xmm14, %xmm7
	vmovq	%rsi, %xmm2
	vmovsd	%xmm13, %xmm13, %xmm14
	vmovsd	-112(%rbp), %xmm13
	vunpcklpd	%xmm2, %xmm12, %xmm9
	vmovq	%rcx, %xmm2
	vunpcklpd	%xmm2, %xmm13, %xmm13
	vmovsd	%xmm7, %xmm7, %xmm8
	vinsertf128	$0x1, %xmm9, %ymm13, %ymm13
	vmovq	%rdx, %xmm7
	vunpcklpd	%xmm8, %xmm14, %xmm14
	vmovupd	%ymm13, (%r15)
	vunpcklpd	%xmm7, %xmm15, %xmm15
	vinsertf128	$0x1, %xmm15, %ymm14, %ymm14
	vmovsd	(%r15), %xmm8
	vmovupd	%ymm14, 32(%r15)
.L390:
	vmovsd	-656(%rbp), %xmm2
	vmovsd	-336(%rbp), %xmm7
	vmovsd	-664(%rbp), %xmm5
	vmulsd	%xmm7, %xmm2, %xmm0
	vmovsd	-312(%rbp), %xmm1
	vaddsd	-208(%rbp), %xmm8, %xmm8
	addq	$4, %rbx
	addq	$64, %r15
	vfmsub231sd	%xmm1, %xmm5, %xmm0
	vmulsd	%xmm2, %xmm1, %xmm1
	vmovsd	-272(%rbp), %xmm2
	vmovsd	%xmm8, -64(%r15)
	vaddsd	-48(%r15), %xmm2, %xmm8
	vmovsd	-368(%rbp), %xmm2
	vfmadd132sd	%xmm5, %xmm1, %xmm7
	vmovsd	%xmm8, -48(%r15)
	vmovsd	%xmm7, -336(%rbp)
	vmovsd	-176(%rbp), %xmm7
	vaddsd	-56(%r15), %xmm7, %xmm1
	vmovsd	-240(%rbp), %xmm7
	vmovsd	%xmm1, -56(%r15)
	vaddsd	-40(%r15), %xmm7, %xmm1
	vmovsd	-304(%rbp), %xmm7
	vmovsd	%xmm1, -40(%r15)
	vaddsd	-32(%r15), %xmm2, %xmm1
	vmovsd	-432(%rbp), %xmm2
	vmovsd	%xmm1, -32(%r15)
	vaddsd	-24(%r15), %xmm7, %xmm1
	vmovsd	-400(%rbp), %xmm7
	vmovsd	%xmm1, -24(%r15)
	vaddsd	-16(%r15), %xmm2, %xmm1
	vmovsd	%xmm1, -16(%r15)
	vaddsd	-8(%r15), %xmm7, %xmm1
	vmovsd	%xmm1, -8(%r15)
	cmpq	%rbx, %r10
	jbe	.L422
	vmovsd	%xmm0, -312(%rbp)
	vmovsd	%xmm0, %xmm0, %xmm10
	jmp	.L392
	.p2align 4,,10
	.p2align 3
.L404:
	vmovsd	.LC5(%rip), %xmm2
	vxorpd	%xmm0, %xmm0, %xmm0
	vmovsd	%xmm0, -432(%rbp)
	vmovsd	%xmm0, -400(%rbp)
	vmovsd	%xmm0, -368(%rbp)
	vmovsd	%xmm0, -304(%rbp)
	vmovsd	%xmm0, -272(%rbp)
	vmovsd	%xmm0, -240(%rbp)
	vmovsd	%xmm0, -208(%rbp)
	vmovsd	%xmm0, -176(%rbp)
	vmovsd	%xmm0, %xmm0, %xmm7
	vmovsd	%xmm2, %xmm2, %xmm1
	vmovsd	%xmm0, %xmm0, %xmm6
	vmovsd	%xmm2, %xmm2, %xmm4
	vmovsd	%xmm2, %xmm2, %xmm3
	vmovsd	%xmm0, %xmm0, %xmm5
	jmp	.L388
	.p2align 4,,10
	.p2align 3
.L422:
	movq	-720(%rbp), %r14
	movl	%r13d, %r12d
	movl	%r8d, %r13d
	vzeroupper
.L387:
	movl	-692(%rbp), %ecx
	subl	-696(%rbp), %ecx
	movslq	%ecx, %rcx
	cmpq	%rcx, -688(%rbp)
	jbe	.L393
	movq	-704(%rbp), %rax
	movq	-712(%rbp), %r8
	movslq	%r13d, %rsi
	salq	$4, %rcx
	addq	%rax, %rcx
	addq	%rax, %r8
	movq	%r14, %rdi
	movq	-680(%rbp), %rax
	movq	%rsi, %rdx
	salq	$4, %rdi
	salq	$4, %rdx
	vmovsd	-632(%rbp), %xmm9
	vmovsd	-640(%rbp), %xmm10
	vmovsd	-336(%rbp), %xmm6
	addq	%rax, %rdi
	addq	%rax, %rdx
	.p2align 4,,10
	.p2align 3
.L394:
	cmpq	%rsi, %r14
	jnb	.L397
	vmovsd	(%rcx), %xmm8
	vmovsd	8(%rcx), %xmm7
	vmovsd	.LC5(%rip), %xmm1
	movq	%rdi, %rax
	vxorpd	%xmm2, %xmm2, %xmm2
	.p2align 4,,10
	.p2align 3
.L395:
	vmovsd	8(%rax), %xmm4
	vmovsd	(%rax), %xmm3
	vmulsd	%xmm1, %xmm4, %xmm5
	vmulsd	%xmm2, %xmm4, %xmm4
	addq	$16, %rax
	vfmadd231sd	%xmm2, %xmm3, %xmm5
	vfmsub132sd	%xmm1, %xmm4, %xmm3
	vmulsd	%xmm2, %xmm6, %xmm4
	vaddsd	%xmm5, %xmm7, %xmm7
	vaddsd	%xmm3, %xmm8, %xmm8
	vmovsd	%xmm1, %xmm1, %xmm3
	vmulsd	%xmm3, %xmm6, %xmm3
	vfmsub132sd	%xmm0, %xmm4, %xmm1
	vfmadd132sd	%xmm0, %xmm3, %xmm2
	cmpq	%rdx, %rax
	jne	.L395
	vmovsd	%xmm8, (%rcx)
	vmovsd	%xmm7, 8(%rcx)
.L397:
	vmulsd	%xmm6, %xmm9, %xmm1
	addq	$16, %rcx
	vfmsub231sd	%xmm0, %xmm10, %xmm1
	vmulsd	%xmm0, %xmm9, %xmm0
	vfmadd132sd	%xmm10, %xmm0, %xmm6
	cmpq	%rcx, %r8
	je	.L393
	vmovsd	%xmm1, %xmm1, %xmm0
	jmp	.L394
	.p2align 4,,10
	.p2align 3
.L393:
	cmpl	%r12d, %r13d
	jle	.L368
	movq	-680(%rbp), %rdi
	movq	%r14, %rax
	salq	$4, %rax
	addq	%rax, %rdi
	movl	%r13d, %eax
	subl	%r12d, %eax
	leal	-1(%rax), %edx
	incq	%rdx
	movq	-704(%rbp), %rsi
	salq	$4, %rdx
	call	memcpy@PLT
.L368:
	movq	-56(%rbp), %rax
	subq	%fs:40, %rax
	jne	.L423
	leaq	-48(%rbp), %rsp
	popq	%rbx
	popq	%r10
	.cfi_remember_state
	.cfi_def_cfa 10, 0
	popq	%r12
	popq	%r13
	popq	%r14
	popq	%r15
	popq	%rbp
	leaq	-8(%r10), %rsp
	.cfi_def_cfa 7, 8
	ret
.L385:
	.cfi_restore_state
	movq	%rax, %rcx
	andl	$1, %ecx
	shrq	%rax
	orq	%rcx, %rax
	vcvtsi2sdq	%rax, %xmm3, %xmm3
	vaddsd	%xmm3, %xmm3, %xmm3
	jmp	.L386
.L420:
	orq	$0, -8(%rsp,%rax)
	jmp	.L371
.L403:
	vmovsd	%xmm7, %xmm7, %xmm0
	vmovsd	%xmm5, -336(%rbp)
	jmp	.L387
.L402:
	xorl	%eax, %eax
	movslq	%r13d, %rdi
	movl	$1, %r10d
	jmp	.L382
.L401:
	movq	%rsp, %rax
	jmp	.L375
.L423:
	call	__stack_chk_fail@PLT
	.cfi_endproc
.LFE10489:
	.size	_Z20dft_subarray_inplaceP7ComplexIdvEii, .-_Z20dft_subarray_inplaceP7ComplexIdvEii
	.p2align 4
	.globl	_Z6fft_b2P7ComplexIdvEi
	.type	_Z6fft_b2P7ComplexIdvEi, @function
_Z6fft_b2P7ComplexIdvEi:
.LFB10490:
	.cfi_startproc
	endbr64
	movslq	%esi, %rsi
	testq	%rsi, %rsi
	je	.L431
	decq	%rsi
	shrq	$3, %rsi
	salq	$7, %rsi
	vmovapd	.LC9(%rip), %ymm4
	leaq	128(%rdi,%rsi), %rax
	.p2align 4,,10
	.p2align 3
.L426:
	vmovupd	(%rdi), %ymm3
	vmovupd	32(%rdi), %ymm2
	vpermpd	$238, %ymm3, %ymm5
	vpermpd	$68, %ymm3, %ymm3
	vfmadd231pd	%ymm4, %ymm5, %ymm3
	vmovupd	64(%rdi), %ymm1
	vmovupd	96(%rdi), %ymm0
	subq	$-128, %rdi
	vmovupd	%ymm3, -128(%rdi)
	vpermpd	$238, %ymm2, %ymm3
	vpermpd	$68, %ymm2, %ymm2
	vfmadd231pd	%ymm4, %ymm3, %ymm2
	vmovupd	%ymm2, -96(%rdi)
	vpermpd	$238, %ymm1, %ymm2
	vpermpd	$68, %ymm1, %ymm1
	vfmadd231pd	%ymm4, %ymm2, %ymm1
	vmovupd	%ymm1, -64(%rdi)
	vpermpd	$238, %ymm0, %ymm1
	vpermpd	$68, %ymm0, %ymm0
	vfmadd231pd	%ymm4, %ymm1, %ymm0
	vmovupd	%ymm0, -32(%rdi)
	cmpq	%rax, %rdi
	jne	.L426
	vzeroupper
.L431:
	ret
	.cfi_endproc
.LFE10490:
	.size	_Z6fft_b2P7ComplexIdvEi, .-_Z6fft_b2P7ComplexIdvEi
	.p2align 4
	.globl	_Z6fft_b4P7ComplexIdvEi
	.type	_Z6fft_b4P7ComplexIdvEi, @function
_Z6fft_b4P7ComplexIdvEi:
.LFB10491:
	.cfi_startproc
	endbr64
	movslq	%esi, %rsi
	testq	%rsi, %rsi
	je	.L439
	vmovapd	.LC10(%rip), %ymm2
	xorl	%eax, %eax
	vpermilpd	$5, %ymm2, %ymm3
	.p2align 4,,10
	.p2align 3
.L434:
	vmovupd	32(%rdi), %ymm1
	vmovupd	(%rdi), %ymm4
	vmulpd	%ymm2, %ymm1, %ymm0
	vmulpd	%ymm1, %ymm3, %ymm1
	addq	$16, %rax
	addq	$256, %rdi
	vhsubpd	%ymm0, %ymm0, %ymm0
	vhaddpd	%ymm1, %ymm1, %ymm1
	vblendpd	$10, %ymm1, %ymm0, %ymm0
	vaddpd	%ymm4, %ymm0, %ymm1
	vsubpd	%ymm0, %ymm4, %ymm4
	vmovupd	%ymm1, -256(%rdi)
	vmovupd	-160(%rdi), %ymm1
	vmovupd	%ymm4, -224(%rdi)
	vmulpd	%ymm2, %ymm1, %ymm0
	vmulpd	%ymm3, %ymm1, %ymm1
	vmovupd	-192(%rdi), %ymm4
	vhsubpd	%ymm0, %ymm0, %ymm0
	vhaddpd	%ymm1, %ymm1, %ymm1
	vblendpd	$10, %ymm1, %ymm0, %ymm0
	vaddpd	%ymm4, %ymm0, %ymm1
	vsubpd	%ymm0, %ymm4, %ymm4
	vmovupd	%ymm1, -192(%rdi)
	vmovupd	-96(%rdi), %ymm1
	vmovupd	%ymm4, -160(%rdi)
	vmulpd	%ymm2, %ymm1, %ymm0
	vmulpd	%ymm3, %ymm1, %ymm1
	vmovupd	-128(%rdi), %ymm4
	vhsubpd	%ymm0, %ymm0, %ymm0
	vhaddpd	%ymm1, %ymm1, %ymm1
	vblendpd	$10, %ymm1, %ymm0, %ymm0
	vaddpd	%ymm4, %ymm0, %ymm1
	vsubpd	%ymm0, %ymm4, %ymm4
	vmovupd	%ymm1, -128(%rdi)
	vmovupd	-32(%rdi), %ymm1
	vmovupd	%ymm4, -96(%rdi)
	vmulpd	%ymm2, %ymm1, %ymm0
	vmulpd	%ymm3, %ymm1, %ymm1
	vmovupd	-64(%rdi), %ymm4
	vhsubpd	%ymm0, %ymm0, %ymm0
	vhaddpd	%ymm1, %ymm1, %ymm1
	vblendpd	$10, %ymm1, %ymm0, %ymm0
	vaddpd	%ymm0, %ymm4, %ymm1
	vsubpd	%ymm0, %ymm4, %ymm4
	vmovupd	%ymm1, -64(%rdi)
	vmovupd	%ymm4, -32(%rdi)
	cmpq	%rsi, %rax
	jb	.L434
	vzeroupper
.L439:
	ret
	.cfi_endproc
.LFE10491:
	.size	_Z6fft_b4P7ComplexIdvEi, .-_Z6fft_b4P7ComplexIdvEi
	.p2align 4
	.globl	_Z7fft_oddP7ComplexIdvEii
	.type	_Z7fft_oddP7ComplexIdvEii, @function
_Z7fft_oddP7ComplexIdvEii:
.LFB10492:
	.cfi_startproc
	endbr64
	leaq	8(%rsp), %r10
	.cfi_def_cfa 10, 0
	andq	$-32, %rsp
	pushq	-8(%r10)
	vxorps	%xmm0, %xmm0, %xmm0
	vcvtsi2sdl	%edx, %xmm0, %xmm0
	pushq	%rbp
	movq	%rsp, %rbp
	.cfi_escape 0x10,0x6,0x2,0x76,0
	pushq	%r15
	pushq	%r14
	pushq	%r13
	pushq	%r12
	.cfi_escape 0x10,0xf,0x2,0x76,0x78
	.cfi_escape 0x10,0xe,0x2,0x76,0x70
	.cfi_escape 0x10,0xd,0x2,0x76,0x68
	.cfi_escape 0x10,0xc,0x2,0x76,0x60
	movl	%edx, %r12d
	movl	%r12d, %r13d
	pushq	%r10
	.cfi_escape 0xf,0x3,0x76,0x58,0x6
	sarl	%r13d
	pushq	%rbx
	.cfi_escape 0x10,0x3,0x2,0x76,0x50
	movl	%esi, %ebx
	subq	$192, %rsp
	vmovsd	.LC6(%rip), %xmm1
	movq	%rdi, -112(%rbp)
	vdivsd	%xmm0, %xmm1, %xmm0
	movl	%esi, -68(%rbp)
	leaq	-56(%rbp), %rdi
	leaq	-64(%rbp), %rsi
	call	sincos@PLT
	vmovsd	-64(%rbp), %xmm6
	vmovsd	-56(%rbp), %xmm0
	vaddsd	%xmm6, %xmm6, %xmm3
	vxorpd	.LC7(%rip), %xmm0, %xmm7
	vmulsd	%xmm0, %xmm0, %xmm0
	vmulsd	%xmm7, %xmm3, %xmm3
	vmovsd	%xmm6, -184(%rbp)
	vmovsd	%xmm7, -80(%rbp)
	vfmsub231sd	%xmm6, %xmm6, %xmm0
	vmulsd	%xmm3, %xmm3, %xmm1
	vmulsd	%xmm0, %xmm3, %xmm2
	vfmsub231sd	%xmm0, %xmm0, %xmm1
	vunpcklpd	%xmm3, %xmm0, %xmm0
	vinsertf128	$1, %xmm0, %ymm0, %ymm0
	vaddsd	%xmm2, %xmm2, %xmm2
	vmulsd	%xmm1, %xmm2, %xmm4
	vmulsd	%xmm2, %xmm2, %xmm2
	vaddsd	%xmm4, %xmm4, %xmm4
	vfmsub132sd	%xmm1, %xmm2, %xmm1
	vunpcklpd	%xmm4, %xmm1, %xmm12
	vinsertf128	$1, %xmm12, %ymm12, %ymm12
	testl	%ebx, %ebx
	jle	.L455
	vmovq	.LC8(%rip), %xmm2
	vunpcklpd	%xmm7, %xmm6, %xmm1
	vinsertf128	$0x1, %xmm1, %ymm2, %ymm6
	vpermilpd	$5, %ymm0, %ymm1
	vmulpd	%ymm6, %ymm0, %ymm2
	vmulpd	%ymm6, %ymm1, %ymm3
	vmovapd	%ymm6, -240(%rbp)
	movl	%r13d, %r11d
	movq	-112(%rbp), %r8
	vhsubpd	%ymm2, %ymm2, %ymm2
	vhaddpd	%ymm3, %ymm3, %ymm3
	andl	$-8, %r11d
	leal	-1(%r13), %eax
	vblendpd	$10, %ymm3, %ymm2, %ymm6
	vmulpd	%ymm6, %ymm0, %ymm2
	vmulpd	%ymm6, %ymm1, %ymm3
	vmovapd	%ymm6, -112(%rbp)
	movslq	%r11d, %r14
	subl	%r11d, %eax
	vhsubpd	%ymm2, %ymm2, %ymm2
	vhaddpd	%ymm3, %ymm3, %ymm3
	addq	%r14, %rax
	salq	$4, %rax
	vblendpd	$10, %ymm3, %ymm2, %ymm6
	vmulpd	%ymm6, %ymm0, %ymm0
	vmulpd	%ymm6, %ymm1, %ymm1
	leaq	16(%r8,%rax), %rdi
	leal	-1(%r11), %eax
	shrl	$3, %eax
	salq	$3, %rax
	vhsubpd	%ymm0, %ymm0, %ymm0
	vhaddpd	%ymm1, %ymm1, %ymm1
	movq	%rax, -192(%rbp)
	leaq	128(%r8), %rax
	movslq	%r12d, %r15
	movq	%rax, -200(%rbp)
	movq	%r15, %rbx
	movslq	%r13d, %rcx
	vmovapd	%ymm6, -144(%rbp)
	vblendpd	$10, %ymm1, %ymm0, %ymm6
	salq	$4, %rbx
	salq	$4, %rcx
	salq	$4, %r14
	xorl	%r10d, %r10d
	xorl	%r9d, %r9d
	vmovapd	%ymm6, -176(%rbp)
	.p2align 4,,10
	.p2align 3
.L445:
	vmovapd	-112(%rbp), %ymm1
	vmovapd	-144(%rbp), %ymm2
	vmovapd	-176(%rbp), %ymm3
	testl	%r11d, %r11d
	jle	.L449
	movq	-192(%rbp), %rax
	vmovapd	-240(%rbp), %ymm0
	leaq	(%r10,%rax), %rsi
	salq	$4, %rsi
	leaq	(%rcx,%r8), %rdx
	addq	-200(%rbp), %rsi
	movq	%r8, %rax
	vpermilpd	$5, %ymm12, %ymm13
	.p2align 4,,10
	.p2align 3
.L443:
	vmovupd	(%rdx), %ymm15
	vpermilpd	$5, %ymm0, %ymm5
	vmulpd	%ymm0, %ymm15, %ymm6
	vmulpd	%ymm15, %ymm5, %ymm5
	vmovupd	32(%rdx), %ymm4
	vpermilpd	$5, %ymm1, %ymm15
	vmovupd	64(%rdx), %ymm14
	vhsubpd	%ymm6, %ymm6, %ymm6
	vhaddpd	%ymm5, %ymm5, %ymm5
	vmovupd	96(%rdx), %ymm7
	vmovupd	(%rax), %ymm11
	vblendpd	$10, %ymm5, %ymm6, %ymm6
	vmulpd	%ymm1, %ymm4, %ymm5
	vmulpd	%ymm15, %ymm4, %ymm4
	vpermilpd	$5, %ymm2, %ymm15
	vmovupd	32(%rax), %ymm10
	vmovupd	64(%rax), %ymm9
	vhsubpd	%ymm5, %ymm5, %ymm5
	vhaddpd	%ymm4, %ymm4, %ymm4
	vmovupd	96(%rax), %ymm8
	subq	$-128, %rax
	vblendpd	$10, %ymm4, %ymm5, %ymm5
	vmulpd	%ymm2, %ymm14, %ymm4
	vmulpd	%ymm15, %ymm14, %ymm14
	vpermilpd	$5, %ymm3, %ymm15
	subq	$-128, %rdx
	vhsubpd	%ymm4, %ymm4, %ymm4
	vhaddpd	%ymm14, %ymm14, %ymm14
	vblendpd	$10, %ymm14, %ymm4, %ymm4
	vmulpd	%ymm3, %ymm7, %ymm14
	vmulpd	%ymm15, %ymm7, %ymm7
	vhsubpd	%ymm14, %ymm14, %ymm14
	vhaddpd	%ymm7, %ymm7, %ymm7
	vblendpd	$10, %ymm7, %ymm14, %ymm14
	vaddpd	%ymm11, %ymm6, %ymm7
	vsubpd	%ymm6, %ymm11, %ymm11
	vmovupd	%ymm7, -128(%rax)
	vaddpd	%ymm5, %ymm10, %ymm7
	vsubpd	%ymm5, %ymm10, %ymm10
	vmovupd	%ymm7, -96(%rax)
	vaddpd	%ymm4, %ymm9, %ymm7
	vsubpd	%ymm4, %ymm9, %ymm9
	vmulpd	%ymm0, %ymm12, %ymm4
	vmulpd	%ymm0, %ymm13, %ymm0
	vmovupd	%ymm7, -64(%rax)
	vaddpd	%ymm14, %ymm8, %ymm7
	vsubpd	%ymm14, %ymm8, %ymm8
	vhsubpd	%ymm4, %ymm4, %ymm4
	vhaddpd	%ymm0, %ymm0, %ymm0
	vmovupd	%ymm7, -32(%rax)
	vmovupd	%ymm11, -128(%rdx)
	vblendpd	$10, %ymm0, %ymm4, %ymm0
	vmulpd	%ymm1, %ymm12, %ymm4
	vmulpd	%ymm1, %ymm13, %ymm1
	vmovupd	%ymm10, -96(%rdx)
	vmovupd	%ymm9, -64(%rdx)
	vmovupd	%ymm8, -32(%rdx)
	vhsubpd	%ymm4, %ymm4, %ymm4
	vhaddpd	%ymm1, %ymm1, %ymm1
	vblendpd	$10, %ymm1, %ymm4, %ymm1
	vmulpd	%ymm2, %ymm12, %ymm4
	vmulpd	%ymm2, %ymm13, %ymm2
	vhsubpd	%ymm4, %ymm4, %ymm4
	vhaddpd	%ymm2, %ymm2, %ymm2
	vblendpd	$10, %ymm2, %ymm4, %ymm2
	vmulpd	%ymm3, %ymm12, %ymm4
	vmulpd	%ymm3, %ymm13, %ymm3
	vhsubpd	%ymm4, %ymm4, %ymm4
	vhaddpd	%ymm3, %ymm3, %ymm3
	vblendpd	$10, %ymm3, %ymm4, %ymm3
	cmpq	%rax, %rsi
	jne	.L443
	vunpckhpd	%xmm0, %xmm0, %xmm3
.L442:
	leaq	(%r14,%r8), %rax
	cmpl	%r11d, %r13d
	jle	.L448
	vmovsd	-80(%rbp), %xmm6
	vmovsd	-184(%rbp), %xmm7
	.p2align 4,,10
	.p2align 3
.L447:
	vmovsd	(%rax,%rcx), %xmm1
	vmovsd	(%rax), %xmm9
	vmovsd	%xmm1, %xmm1, %xmm8
	vmovsd	8(%rax,%rcx), %xmm2
	vfmadd132sd	%xmm0, %xmm9, %xmm8
	vmulsd	%xmm0, %xmm2, %xmm5
	vmovsd	8(%rax), %xmm4
	addq	$16, %rax
	vfnmadd231sd	%xmm3, %xmm2, %xmm8
	vfmadd132sd	%xmm3, %xmm9, %xmm2
	vfmadd231sd	%xmm3, %xmm1, %xmm5
	vmovsd	%xmm8, -16(%rax)
	vfnmadd132sd	%xmm0, %xmm2, %xmm1
	vaddsd	%xmm4, %xmm5, %xmm10
	vsubsd	%xmm5, %xmm4, %xmm4
	vmulsd	%xmm3, %xmm6, %xmm2
	vmovsd	%xmm10, -8(%rax)
	vunpcklpd	%xmm4, %xmm1, %xmm1
	vmovupd	%xmm1, -16(%rax,%rcx)
	vmovsd	%xmm0, %xmm0, %xmm1
	vmulsd	%xmm1, %xmm6, %xmm1
	vfmsub132sd	%xmm7, %xmm2, %xmm0
	vfmadd132sd	%xmm7, %xmm1, %xmm3
	cmpq	%rdi, %rax
	jne	.L447
.L448:
	addl	%r12d, %r9d
	addq	%rbx, %rdi
	addq	%rbx, %r8
	addq	%r15, %r10
	cmpl	%r9d, -68(%rbp)
	jg	.L445
.L455:
	vzeroupper
	addq	$192, %rsp
	popq	%rbx
	popq	%r10
	.cfi_remember_state
	.cfi_def_cfa 10, 0
	popq	%r12
	popq	%r13
	popq	%r14
	popq	%r15
	popq	%rbp
	leaq	-8(%r10), %rsp
	.cfi_def_cfa 7, 8
	ret
	.p2align 4,,10
	.p2align 3
.L449:
	.cfi_restore_state
	vmovsd	.LC5(%rip), %xmm0
	vxorpd	%xmm3, %xmm3, %xmm3
	jmp	.L442
	.cfi_endproc
.LFE10492:
	.size	_Z7fft_oddP7ComplexIdvEii, .-_Z7fft_oddP7ComplexIdvEii
	.p2align 4
	.globl	_Z11fft_inplaceP7ComplexIdvEii
	.type	_Z11fft_inplaceP7ComplexIdvEii, @function
_Z11fft_inplaceP7ComplexIdvEii:
.LFB10494:
	.cfi_startproc
	endbr64
	pushq	%r12
	.cfi_def_cfa_offset 16
	.cfi_offset 12, -16
	pushq	%rbp
	.cfi_def_cfa_offset 24
	.cfi_offset 6, -24
	pushq	%rbx
	.cfi_def_cfa_offset 32
	.cfi_offset 3, -32
	leal	(%rdx,%rdx), %ebx
	cmpl	%esi, %ebx
	jg	.L466
	movq	%rdi, %r12
	movl	%esi, %ebp
	jmp	.L463
	.p2align 4,,10
	.p2align 3
.L468:
	movl	%ebx, %edx
	movl	%ebp, %esi
	movq	%r12, %rdi
	call	_Z7fft_oddP7ComplexIdvEii
.L462:
	addl	%ebx, %ebx
	cmpl	%ebx, %ebp
	jl	.L466
.L463:
	cmpl	$2, %ebx
	je	.L459
	cmpl	$4, %ebx
	jne	.L468
	movl	%ebp, %esi
	movq	%r12, %rdi
	addl	%ebx, %ebx
	call	_Z6fft_b4P7ComplexIdvEi
	cmpl	%ebx, %ebp
	jge	.L463
.L466:
	popq	%rbx
	.cfi_remember_state
	.cfi_def_cfa_offset 24
	popq	%rbp
	.cfi_def_cfa_offset 16
	popq	%r12
	.cfi_def_cfa_offset 8
	ret
	.p2align 4,,10
	.p2align 3
.L459:
	.cfi_restore_state
	movl	%ebp, %esi
	movq	%r12, %rdi
	call	_Z6fft_b2P7ComplexIdvEi
	jmp	.L462
	.cfi_endproc
.LFE10494:
	.size	_Z11fft_inplaceP7ComplexIdvEii, .-_Z11fft_inplaceP7ComplexIdvEii
	.section	.rodata.str1.1
.LC12:
	.string	"here\n"
	.text
	.p2align 4
	.globl	_Z13idft_subarrayP7ComplexIdvEiiS1_
	.type	_Z13idft_subarrayP7ComplexIdvEiiS1_, @function
_Z13idft_subarrayP7ComplexIdvEiiS1_:
.LFB10504:
	.cfi_startproc
	endbr64
	leaq	8(%rsp), %r10
	.cfi_def_cfa 10, 0
	andq	$-32, %rsp
	pushq	-8(%r10)
	pushq	%rbp
	movq	%rsp, %rbp
	.cfi_escape 0x10,0x6,0x2,0x76,0
	pushq	%r15
	.cfi_escape 0x10,0xf,0x2,0x76,0x78
	movl	%edx, %r15d
	pushq	%r14
	.cfi_escape 0x10,0xe,0x2,0x76,0x70
	movslq	%esi, %r14
	leaq	.LC12(%rip), %rsi
	pushq	%r13
	.cfi_escape 0x10,0xd,0x2,0x76,0x68
	movq	%rcx, %r13
	pushq	%r12
	.cfi_escape 0x10,0xc,0x2,0x76,0x60
	movq	%rdi, %r12
	leaq	_ZSt4cout(%rip), %rdi
	pushq	%r10
	.cfi_escape 0xf,0x3,0x76,0x58,0x6
	pushq	%rbx
	.cfi_escape 0x10,0x3,0x2,0x76,0x50
	movl	%edx, %ebx
	subl	%r14d, %ebx
	movslq	%ebx, %r8
	subq	$608, %rsp
	movl	$5, %edx
	andl	$7, %ebx
	movq	%r8, -112(%rbp)
	call	_ZSt16__ostream_insertIcSt11char_traitsIcEERSt13basic_ostreamIT_T0_ES6_PKS3_l@PLT
	movl	%r15d, %ecx
	subl	%ebx, %ecx
	movslq	%ecx, %rbx
	cmpq	%rbx, %r14
	movq	-112(%rbp), %r8
	jnb	.L483
	movq	%r14, %rax
	salq	$4, %rax
	addq	%r12, %rax
	movq	%r14, %rdx
	vxorpd	%xmm2, %xmm2, %xmm2
	.p2align 4,,10
	.p2align 3
.L471:
	vmovupd	(%rax), %ymm1
	addq	$8, %rdx
	vaddpd	32(%rax), %ymm1, %ymm0
	vmovupd	64(%rax), %ymm1
	subq	$-128, %rax
	vaddpd	-32(%rax), %ymm1, %ymm1
	vaddpd	%ymm1, %ymm0, %ymm0
